
ctarget:     file format elf64-x86-64


Disassembly of section .init:

0000000000400ce0 <_init>:
  400ce0:	48 83 ec 08          	sub    $0x8,%rsp
  400ce4:	48 8b 05 0d 33 20 00 	mov    0x20330d(%rip),%rax        # 603ff8 <__gmon_start__@Base>
  400ceb:	48 85 c0             	test   %rax,%rax
  400cee:	74 02                	je     400cf2 <_init+0x12>
  400cf0:	ff d0                	call   *%rax
  400cf2:	48 83 c4 08          	add    $0x8,%rsp
  400cf6:	c3                   	ret    

Disassembly of section .plt:

0000000000400d00 <strcasecmp@plt-0x10>:
  400d00:	ff 35 02 33 20 00    	push   0x203302(%rip)        # 604008 <_GLOBAL_OFFSET_TABLE_+0x8>
  400d06:	ff 25 04 33 20 00    	jmp    *0x203304(%rip)        # 604010 <_GLOBAL_OFFSET_TABLE_+0x10>
  400d0c:	0f 1f 40 00          	nopl   0x0(%rax)

0000000000400d10 <strcasecmp@plt>:
  400d10:	ff 25 02 33 20 00    	jmp    *0x203302(%rip)        # 604018 <strcasecmp@GLIBC_2.2.5>
  400d16:	68 00 00 00 00       	push   $0x0
  400d1b:	e9 e0 ff ff ff       	jmp    400d00 <_init+0x20>

0000000000400d20 <__errno_location@plt>:
  400d20:	ff 25 fa 32 20 00    	jmp    *0x2032fa(%rip)        # 604020 <__errno_location@GLIBC_2.2.5>
  400d26:	68 01 00 00 00       	push   $0x1
  400d2b:	e9 d0 ff ff ff       	jmp    400d00 <_init+0x20>

0000000000400d30 <srandom@plt>:
  400d30:	ff 25 f2 32 20 00    	jmp    *0x2032f2(%rip)        # 604028 <srandom@GLIBC_2.2.5>
  400d36:	68 02 00 00 00       	push   $0x2
  400d3b:	e9 c0 ff ff ff       	jmp    400d00 <_init+0x20>

0000000000400d40 <strncmp@plt>:
  400d40:	ff 25 ea 32 20 00    	jmp    *0x2032ea(%rip)        # 604030 <strncmp@GLIBC_2.2.5>
  400d46:	68 03 00 00 00       	push   $0x3
  400d4b:	e9 b0 ff ff ff       	jmp    400d00 <_init+0x20>

0000000000400d50 <strcpy@plt>:
  400d50:	ff 25 e2 32 20 00    	jmp    *0x2032e2(%rip)        # 604038 <strcpy@GLIBC_2.2.5>
  400d56:	68 04 00 00 00       	push   $0x4
  400d5b:	e9 a0 ff ff ff       	jmp    400d00 <_init+0x20>

0000000000400d60 <puts@plt>:
  400d60:	ff 25 da 32 20 00    	jmp    *0x2032da(%rip)        # 604040 <puts@GLIBC_2.2.5>
  400d66:	68 05 00 00 00       	push   $0x5
  400d6b:	e9 90 ff ff ff       	jmp    400d00 <_init+0x20>

0000000000400d70 <write@plt>:
  400d70:	ff 25 d2 32 20 00    	jmp    *0x2032d2(%rip)        # 604048 <write@GLIBC_2.2.5>
  400d76:	68 06 00 00 00       	push   $0x6
  400d7b:	e9 80 ff ff ff       	jmp    400d00 <_init+0x20>

0000000000400d80 <mmap@plt>:
  400d80:	ff 25 ca 32 20 00    	jmp    *0x2032ca(%rip)        # 604050 <mmap@GLIBC_2.2.5>
  400d86:	68 07 00 00 00       	push   $0x7
  400d8b:	e9 70 ff ff ff       	jmp    400d00 <_init+0x20>

0000000000400d90 <printf@plt>:
  400d90:	ff 25 c2 32 20 00    	jmp    *0x2032c2(%rip)        # 604058 <printf@GLIBC_2.2.5>
  400d96:	68 08 00 00 00       	push   $0x8
  400d9b:	e9 60 ff ff ff       	jmp    400d00 <_init+0x20>

0000000000400da0 <memset@plt>:
  400da0:	ff 25 ba 32 20 00    	jmp    *0x2032ba(%rip)        # 604060 <memset@GLIBC_2.2.5>
  400da6:	68 09 00 00 00       	push   $0x9
  400dab:	e9 50 ff ff ff       	jmp    400d00 <_init+0x20>

0000000000400db0 <alarm@plt>:
  400db0:	ff 25 b2 32 20 00    	jmp    *0x2032b2(%rip)        # 604068 <alarm@GLIBC_2.2.5>
  400db6:	68 0a 00 00 00       	push   $0xa
  400dbb:	e9 40 ff ff ff       	jmp    400d00 <_init+0x20>

0000000000400dc0 <close@plt>:
  400dc0:	ff 25 aa 32 20 00    	jmp    *0x2032aa(%rip)        # 604070 <close@GLIBC_2.2.5>
  400dc6:	68 0b 00 00 00       	push   $0xb
  400dcb:	e9 30 ff ff ff       	jmp    400d00 <_init+0x20>

0000000000400dd0 <read@plt>:
  400dd0:	ff 25 a2 32 20 00    	jmp    *0x2032a2(%rip)        # 604078 <read@GLIBC_2.2.5>
  400dd6:	68 0c 00 00 00       	push   $0xc
  400ddb:	e9 20 ff ff ff       	jmp    400d00 <_init+0x20>

0000000000400de0 <signal@plt>:
  400de0:	ff 25 9a 32 20 00    	jmp    *0x20329a(%rip)        # 604080 <signal@GLIBC_2.2.5>
  400de6:	68 0d 00 00 00       	push   $0xd
  400deb:	e9 10 ff ff ff       	jmp    400d00 <_init+0x20>

0000000000400df0 <gethostbyname@plt>:
  400df0:	ff 25 92 32 20 00    	jmp    *0x203292(%rip)        # 604088 <gethostbyname@GLIBC_2.2.5>
  400df6:	68 0e 00 00 00       	push   $0xe
  400dfb:	e9 00 ff ff ff       	jmp    400d00 <_init+0x20>

0000000000400e00 <fprintf@plt>:
  400e00:	ff 25 8a 32 20 00    	jmp    *0x20328a(%rip)        # 604090 <fprintf@GLIBC_2.2.5>
  400e06:	68 0f 00 00 00       	push   $0xf
  400e0b:	e9 f0 fe ff ff       	jmp    400d00 <_init+0x20>

0000000000400e10 <strtol@plt>:
  400e10:	ff 25 82 32 20 00    	jmp    *0x203282(%rip)        # 604098 <strtol@GLIBC_2.2.5>
  400e16:	68 10 00 00 00       	push   $0x10
  400e1b:	e9 e0 fe ff ff       	jmp    400d00 <_init+0x20>

0000000000400e20 <memcpy@plt>:
  400e20:	ff 25 7a 32 20 00    	jmp    *0x20327a(%rip)        # 6040a0 <memcpy@GLIBC_2.14>
  400e26:	68 11 00 00 00       	push   $0x11
  400e2b:	e9 d0 fe ff ff       	jmp    400d00 <_init+0x20>

0000000000400e30 <time@plt>:
  400e30:	ff 25 72 32 20 00    	jmp    *0x203272(%rip)        # 6040a8 <time@GLIBC_2.2.5>
  400e36:	68 12 00 00 00       	push   $0x12
  400e3b:	e9 c0 fe ff ff       	jmp    400d00 <_init+0x20>

0000000000400e40 <random@plt>:
  400e40:	ff 25 6a 32 20 00    	jmp    *0x20326a(%rip)        # 6040b0 <random@GLIBC_2.2.5>
  400e46:	68 13 00 00 00       	push   $0x13
  400e4b:	e9 b0 fe ff ff       	jmp    400d00 <_init+0x20>

0000000000400e50 <__isoc99_sscanf@plt>:
  400e50:	ff 25 62 32 20 00    	jmp    *0x203262(%rip)        # 6040b8 <__isoc99_sscanf@GLIBC_2.7>
  400e56:	68 14 00 00 00       	push   $0x14
  400e5b:	e9 a0 fe ff ff       	jmp    400d00 <_init+0x20>

0000000000400e60 <munmap@plt>:
  400e60:	ff 25 5a 32 20 00    	jmp    *0x20325a(%rip)        # 6040c0 <munmap@GLIBC_2.2.5>
  400e66:	68 15 00 00 00       	push   $0x15
  400e6b:	e9 90 fe ff ff       	jmp    400d00 <_init+0x20>

0000000000400e70 <bcopy@plt>:
  400e70:	ff 25 52 32 20 00    	jmp    *0x203252(%rip)        # 6040c8 <bcopy@GLIBC_2.2.5>
  400e76:	68 16 00 00 00       	push   $0x16
  400e7b:	e9 80 fe ff ff       	jmp    400d00 <_init+0x20>

0000000000400e80 <fopen@plt>:
  400e80:	ff 25 4a 32 20 00    	jmp    *0x20324a(%rip)        # 6040d0 <fopen@GLIBC_2.2.5>
  400e86:	68 17 00 00 00       	push   $0x17
  400e8b:	e9 70 fe ff ff       	jmp    400d00 <_init+0x20>

0000000000400e90 <getopt@plt>:
  400e90:	ff 25 42 32 20 00    	jmp    *0x203242(%rip)        # 6040d8 <getopt@GLIBC_2.2.5>
  400e96:	68 18 00 00 00       	push   $0x18
  400e9b:	e9 60 fe ff ff       	jmp    400d00 <_init+0x20>

0000000000400ea0 <strtoul@plt>:
  400ea0:	ff 25 3a 32 20 00    	jmp    *0x20323a(%rip)        # 6040e0 <strtoul@GLIBC_2.2.5>
  400ea6:	68 19 00 00 00       	push   $0x19
  400eab:	e9 50 fe ff ff       	jmp    400d00 <_init+0x20>

0000000000400eb0 <gethostname@plt>:
  400eb0:	ff 25 32 32 20 00    	jmp    *0x203232(%rip)        # 6040e8 <gethostname@GLIBC_2.2.5>
  400eb6:	68 1a 00 00 00       	push   $0x1a
  400ebb:	e9 40 fe ff ff       	jmp    400d00 <_init+0x20>

0000000000400ec0 <sprintf@plt>:
  400ec0:	ff 25 2a 32 20 00    	jmp    *0x20322a(%rip)        # 6040f0 <sprintf@GLIBC_2.2.5>
  400ec6:	68 1b 00 00 00       	push   $0x1b
  400ecb:	e9 30 fe ff ff       	jmp    400d00 <_init+0x20>

0000000000400ed0 <exit@plt>:
  400ed0:	ff 25 22 32 20 00    	jmp    *0x203222(%rip)        # 6040f8 <exit@GLIBC_2.2.5>
  400ed6:	68 1c 00 00 00       	push   $0x1c
  400edb:	e9 20 fe ff ff       	jmp    400d00 <_init+0x20>

0000000000400ee0 <connect@plt>:
  400ee0:	ff 25 1a 32 20 00    	jmp    *0x20321a(%rip)        # 604100 <connect@GLIBC_2.2.5>
  400ee6:	68 1d 00 00 00       	push   $0x1d
  400eeb:	e9 10 fe ff ff       	jmp    400d00 <_init+0x20>

0000000000400ef0 <getc@plt>:
  400ef0:	ff 25 12 32 20 00    	jmp    *0x203212(%rip)        # 604108 <getc@GLIBC_2.2.5>
  400ef6:	68 1e 00 00 00       	push   $0x1e
  400efb:	e9 00 fe ff ff       	jmp    400d00 <_init+0x20>

0000000000400f00 <socket@plt>:
  400f00:	ff 25 0a 32 20 00    	jmp    *0x20320a(%rip)        # 604110 <socket@GLIBC_2.2.5>
  400f06:	68 1f 00 00 00       	push   $0x1f
  400f0b:	e9 f0 fd ff ff       	jmp    400d00 <_init+0x20>

Disassembly of section .text:

0000000000400f10 <_start>:
  400f10:	31 ed                	xor    %ebp,%ebp
  400f12:	49 89 d1             	mov    %rdx,%r9
  400f15:	5e                   	pop    %rsi
  400f16:	48 89 e2             	mov    %rsp,%rdx
  400f19:	48 83 e4 f0          	and    $0xfffffffffffffff0,%rsp
  400f1d:	50                   	push   %rax
  400f1e:	54                   	push   %rsp
  400f1f:	49 c7 c0 ce 2c 40 00 	mov    $0x402cce,%r8
  400f26:	48 c7 c1 4e 2c 40 00 	mov    $0x402c4e,%rcx
  400f2d:	48 c7 c7 b0 11 40 00 	mov    $0x4011b0,%rdi
  400f34:	ff 15 b6 30 20 00    	call   *0x2030b6(%rip)        # 603ff0 <__libc_start_main@GLIBC_2.2.5>
  400f3a:	f4                   	hlt    
  400f3b:	0f 1f 44 00 00       	nopl   0x0(%rax,%rax,1)

0000000000400f40 <deregister_tm_clones>:
  400f40:	55                   	push   %rbp
  400f41:	b8 90 44 60 00       	mov    $0x604490,%eax
  400f46:	48 3d 90 44 60 00    	cmp    $0x604490,%rax
  400f4c:	48 89 e5             	mov    %rsp,%rbp
  400f4f:	74 17                	je     400f68 <deregister_tm_clones+0x28>
  400f51:	b8 00 00 00 00       	mov    $0x0,%eax
  400f56:	48 85 c0             	test   %rax,%rax
  400f59:	74 0d                	je     400f68 <deregister_tm_clones+0x28>
  400f5b:	5d                   	pop    %rbp
  400f5c:	bf 90 44 60 00       	mov    $0x604490,%edi
  400f61:	ff e0                	jmp    *%rax
  400f63:	0f 1f 44 00 00       	nopl   0x0(%rax,%rax,1)
  400f68:	5d                   	pop    %rbp
  400f69:	c3                   	ret    
  400f6a:	66 0f 1f 44 00 00    	nopw   0x0(%rax,%rax,1)

0000000000400f70 <register_tm_clones>:
  400f70:	be 90 44 60 00       	mov    $0x604490,%esi
  400f75:	55                   	push   %rbp
  400f76:	48 81 ee 90 44 60 00 	sub    $0x604490,%rsi
  400f7d:	48 89 e5             	mov    %rsp,%rbp
  400f80:	48 c1 fe 03          	sar    $0x3,%rsi
  400f84:	48 89 f0             	mov    %rsi,%rax
  400f87:	48 c1 e8 3f          	shr    $0x3f,%rax
  400f8b:	48 01 c6             	add    %rax,%rsi
  400f8e:	48 d1 fe             	sar    %rsi
  400f91:	74 15                	je     400fa8 <register_tm_clones+0x38>
  400f93:	b8 00 00 00 00       	mov    $0x0,%eax
  400f98:	48 85 c0             	test   %rax,%rax
  400f9b:	74 0b                	je     400fa8 <register_tm_clones+0x38>
  400f9d:	5d                   	pop    %rbp
  400f9e:	bf 90 44 60 00       	mov    $0x604490,%edi
  400fa3:	ff e0                	jmp    *%rax
  400fa5:	0f 1f 00             	nopl   (%rax)
  400fa8:	5d                   	pop    %rbp
  400fa9:	c3                   	ret    
  400faa:	66 0f 1f 44 00 00    	nopw   0x0(%rax,%rax,1)

0000000000400fb0 <__do_global_dtors_aux>:
  400fb0:	80 3d 11 35 20 00 00 	cmpb   $0x0,0x203511(%rip)        # 6044c8 <completed.6999>
  400fb7:	75 17                	jne    400fd0 <__do_global_dtors_aux+0x20>
  400fb9:	55                   	push   %rbp
  400fba:	48 89 e5             	mov    %rsp,%rbp
  400fbd:	e8 7e ff ff ff       	call   400f40 <deregister_tm_clones>
  400fc2:	c6 05 ff 34 20 00 01 	movb   $0x1,0x2034ff(%rip)        # 6044c8 <completed.6999>
  400fc9:	5d                   	pop    %rbp
  400fca:	c3                   	ret    
  400fcb:	0f 1f 44 00 00       	nopl   0x0(%rax,%rax,1)
  400fd0:	f3 c3                	repz ret 
  400fd2:	66 66 2e 0f 1f 84 00 	data16 cs nopw 0x0(%rax,%rax,1)
  400fd9:	00 00 00 00 
  400fdd:	0f 1f 00             	nopl   (%rax)

0000000000400fe0 <frame_dummy>:
  400fe0:	55                   	push   %rbp
  400fe1:	48 89 e5             	mov    %rsp,%rbp
  400fe4:	5d                   	pop    %rbp
  400fe5:	eb 89                	jmp    400f70 <register_tm_clones>

0000000000400fe7 <usage>:
  400fe7:	48 83 ec 08          	sub    $0x8,%rsp
  400feb:	48 89 fe             	mov    %rdi,%rsi
  400fee:	83 3d 13 35 20 00 00 	cmpl   $0x0,0x203513(%rip)        # 604508 <is_checker>
  400ff5:	74 41                	je     401038 <usage+0x51>
  400ff7:	bf e8 2c 40 00       	mov    $0x402ce8,%edi
  400ffc:	b8 00 00 00 00       	mov    $0x0,%eax
  401001:	e8 8a fd ff ff       	call   400d90 <printf@plt>
  401006:	bf 20 2d 40 00       	mov    $0x402d20,%edi
  40100b:	e8 50 fd ff ff       	call   400d60 <puts@plt>
  401010:	bf 98 2e 40 00       	mov    $0x402e98,%edi
  401015:	e8 46 fd ff ff       	call   400d60 <puts@plt>
  40101a:	bf 48 2d 40 00       	mov    $0x402d48,%edi
  40101f:	e8 3c fd ff ff       	call   400d60 <puts@plt>
  401024:	bf b2 2e 40 00       	mov    $0x402eb2,%edi
  401029:	e8 32 fd ff ff       	call   400d60 <puts@plt>
  40102e:	bf 00 00 00 00       	mov    $0x0,%edi
  401033:	e8 98 fe ff ff       	call   400ed0 <exit@plt>
  401038:	bf ce 2e 40 00       	mov    $0x402ece,%edi
  40103d:	b8 00 00 00 00       	mov    $0x0,%eax
  401042:	e8 49 fd ff ff       	call   400d90 <printf@plt>
  401047:	bf 70 2d 40 00       	mov    $0x402d70,%edi
  40104c:	e8 0f fd ff ff       	call   400d60 <puts@plt>
  401051:	bf 98 2d 40 00       	mov    $0x402d98,%edi
  401056:	e8 05 fd ff ff       	call   400d60 <puts@plt>
  40105b:	bf ec 2e 40 00       	mov    $0x402eec,%edi
  401060:	e8 fb fc ff ff       	call   400d60 <puts@plt>
  401065:	eb c7                	jmp    40102e <usage+0x47>

0000000000401067 <initialize_target>:
  401067:	55                   	push   %rbp
  401068:	53                   	push   %rbx
  401069:	48 81 ec 08 21 00 00 	sub    $0x2108,%rsp
  401070:	89 f5                	mov    %esi,%ebp
  401072:	89 3d 80 34 20 00    	mov    %edi,0x203480(%rip)        # 6044f8 <check_level>
  401078:	8b 3d ca 30 20 00    	mov    0x2030ca(%rip),%edi        # 604148 <target_id>
  40107e:	e8 95 1b 00 00       	call   402c18 <gencookie>
  401083:	89 05 7b 34 20 00    	mov    %eax,0x20347b(%rip)        # 604504 <cookie>
  401089:	89 c7                	mov    %eax,%edi
  40108b:	e8 88 1b 00 00       	call   402c18 <gencookie>
  401090:	89 05 6a 34 20 00    	mov    %eax,0x20346a(%rip)        # 604500 <authkey>
  401096:	8b 05 ac 30 20 00    	mov    0x2030ac(%rip),%eax        # 604148 <target_id>
  40109c:	8d 78 01             	lea    0x1(%rax),%edi
  40109f:	e8 8c fc ff ff       	call   400d30 <srandom@plt>
  4010a4:	e8 97 fd ff ff       	call   400e40 <random@plt>
  4010a9:	89 c7                	mov    %eax,%edi
  4010ab:	e8 b8 02 00 00       	call   401368 <scramble>
  4010b0:	89 c3                	mov    %eax,%ebx
  4010b2:	85 ed                	test   %ebp,%ebp
  4010b4:	75 3d                	jne    4010f3 <initialize_target+0x8c>
  4010b6:	b8 00 00 00 00       	mov    $0x0,%eax
  4010bb:	01 d8                	add    %ebx,%eax
  4010bd:	0f b7 c0             	movzwl %ax,%eax
  4010c0:	8d 04 c5 00 01 00 00 	lea    0x100(,%rax,8),%eax
  4010c7:	89 c0                	mov    %eax,%eax
  4010c9:	48 89 05 b0 33 20 00 	mov    %rax,0x2033b0(%rip)        # 604480 <buf_offset>
  4010d0:	c6 05 51 40 20 00 63 	movb   $0x63,0x204051(%rip)        # 605128 <target_prefix>
  4010d7:	83 3d aa 33 20 00 00 	cmpl   $0x0,0x2033aa(%rip)        # 604488 <notify>
  4010de:	74 09                	je     4010e9 <initialize_target+0x82>
  4010e0:	83 3d 21 34 20 00 00 	cmpl   $0x0,0x203421(%rip)        # 604508 <is_checker>
  4010e7:	74 22                	je     40110b <initialize_target+0xa4>
  4010e9:	48 81 c4 08 21 00 00 	add    $0x2108,%rsp
  4010f0:	5b                   	pop    %rbx
  4010f1:	5d                   	pop    %rbp
  4010f2:	c3                   	ret    
  4010f3:	bf 00 00 00 00       	mov    $0x0,%edi
  4010f8:	e8 33 fd ff ff       	call   400e30 <time@plt>
  4010fd:	89 c7                	mov    %eax,%edi
  4010ff:	e8 2c fc ff ff       	call   400d30 <srandom@plt>
  401104:	e8 37 fd ff ff       	call   400e40 <random@plt>
  401109:	eb b0                	jmp    4010bb <initialize_target+0x54>
  40110b:	be 00 01 00 00       	mov    $0x100,%esi
  401110:	48 89 e7             	mov    %rsp,%rdi
  401113:	e8 98 fd ff ff       	call   400eb0 <gethostname@plt>
  401118:	89 c5                	mov    %eax,%ebp
  40111a:	85 c0                	test   %eax,%eax
  40111c:	75 23                	jne    401141 <initialize_target+0xda>
  40111e:	89 c3                	mov    %eax,%ebx
  401120:	48 63 c3             	movslq %ebx,%rax
  401123:	48 8b 3c c5 60 41 60 	mov    0x604160(,%rax,8),%rdi
  40112a:	00 
  40112b:	48 85 ff             	test   %rdi,%rdi
  40112e:	74 2a                	je     40115a <initialize_target+0xf3>
  401130:	48 89 e6             	mov    %rsp,%rsi
  401133:	e8 d8 fb ff ff       	call   400d10 <strcasecmp@plt>
  401138:	85 c0                	test   %eax,%eax
  40113a:	74 19                	je     401155 <initialize_target+0xee>
  40113c:	83 c3 01             	add    $0x1,%ebx
  40113f:	eb df                	jmp    401120 <initialize_target+0xb9>
  401141:	bf c8 2d 40 00       	mov    $0x402dc8,%edi
  401146:	e8 15 fc ff ff       	call   400d60 <puts@plt>
  40114b:	bf 08 00 00 00       	mov    $0x8,%edi
  401150:	e8 7b fd ff ff       	call   400ed0 <exit@plt>
  401155:	bd 01 00 00 00       	mov    $0x1,%ebp
  40115a:	85 ed                	test   %ebp,%ebp
  40115c:	74 36                	je     401194 <initialize_target+0x12d>
  40115e:	48 8d bc 24 00 01 00 	lea    0x100(%rsp),%rdi
  401165:	00 
  401166:	e8 40 18 00 00       	call   4029ab <init_driver>
  40116b:	85 c0                	test   %eax,%eax
  40116d:	0f 89 76 ff ff ff    	jns    4010e9 <initialize_target+0x82>
  401173:	48 8d b4 24 00 01 00 	lea    0x100(%rsp),%rsi
  40117a:	00 
  40117b:	bf 40 2e 40 00       	mov    $0x402e40,%edi
  401180:	b8 00 00 00 00       	mov    $0x0,%eax
  401185:	e8 06 fc ff ff       	call   400d90 <printf@plt>
  40118a:	bf 08 00 00 00       	mov    $0x8,%edi
  40118f:	e8 3c fd ff ff       	call   400ed0 <exit@plt>
  401194:	48 89 e6             	mov    %rsp,%rsi
  401197:	bf 00 2e 40 00       	mov    $0x402e00,%edi
  40119c:	b8 00 00 00 00       	mov    $0x0,%eax
  4011a1:	e8 ea fb ff ff       	call   400d90 <printf@plt>
  4011a6:	bf 08 00 00 00       	mov    $0x8,%edi
  4011ab:	e8 20 fd ff ff       	call   400ed0 <exit@plt>

00000000004011b0 <main>:
  4011b0:	41 56                	push   %r14
  4011b2:	41 55                	push   %r13
  4011b4:	41 54                	push   %r12
  4011b6:	55                   	push   %rbp
  4011b7:	53                   	push   %rbx
  4011b8:	41 89 fc             	mov    %edi,%r12d
  4011bb:	48 89 f3             	mov    %rsi,%rbx
  4011be:	be b3 1d 40 00       	mov    $0x401db3,%esi
  4011c3:	bf 0b 00 00 00       	mov    $0xb,%edi
  4011c8:	e8 13 fc ff ff       	call   400de0 <signal@plt>
  4011cd:	be 65 1d 40 00       	mov    $0x401d65,%esi
  4011d2:	bf 07 00 00 00       	mov    $0x7,%edi
  4011d7:	e8 04 fc ff ff       	call   400de0 <signal@plt>
  4011dc:	be 01 1e 40 00       	mov    $0x401e01,%esi
  4011e1:	bf 04 00 00 00       	mov    $0x4,%edi
  4011e6:	e8 f5 fb ff ff       	call   400de0 <signal@plt>
  4011eb:	83 3d 16 33 20 00 00 	cmpl   $0x0,0x203316(%rip)        # 604508 <is_checker>
  4011f2:	75 24                	jne    401218 <main+0x68>
  4011f4:	bd 05 2f 40 00       	mov    $0x402f05,%ebp
  4011f9:	48 8b 05 a0 32 20 00 	mov    0x2032a0(%rip),%rax        # 6044a0 <stdin@@GLIBC_2.2.5>
  401200:	48 89 05 e9 32 20 00 	mov    %rax,0x2032e9(%rip)        # 6044f0 <infile>
  401207:	41 bd 00 00 00 00    	mov    $0x0,%r13d
  40120d:	41 be 00 00 00 00    	mov    $0x0,%r14d
  401213:	e9 80 00 00 00       	jmp    401298 <main+0xe8>
  401218:	be 4f 1e 40 00       	mov    $0x401e4f,%esi
  40121d:	bf 0e 00 00 00       	mov    $0xe,%edi
  401222:	e8 b9 fb ff ff       	call   400de0 <signal@plt>
  401227:	bf 05 00 00 00       	mov    $0x5,%edi
  40122c:	e8 7f fb ff ff       	call   400db0 <alarm@plt>
  401231:	bd 0a 2f 40 00       	mov    $0x402f0a,%ebp
  401236:	eb c1                	jmp    4011f9 <main+0x49>
  401238:	48 8b 3b             	mov    (%rbx),%rdi
  40123b:	e8 a7 fd ff ff       	call   400fe7 <usage>
  401240:	be a5 31 40 00       	mov    $0x4031a5,%esi
  401245:	48 8b 3d 5c 32 20 00 	mov    0x20325c(%rip),%rdi        # 6044a8 <optarg@@GLIBC_2.2.5>
  40124c:	e8 2f fc ff ff       	call   400e80 <fopen@plt>
  401251:	48 89 05 98 32 20 00 	mov    %rax,0x203298(%rip)        # 6044f0 <infile>
  401258:	48 85 c0             	test   %rax,%rax
  40125b:	75 3b                	jne    401298 <main+0xe8>
  40125d:	48 8b 15 44 32 20 00 	mov    0x203244(%rip),%rdx        # 6044a8 <optarg@@GLIBC_2.2.5>
  401264:	be 12 2f 40 00       	mov    $0x402f12,%esi
  401269:	48 8b 3d 50 32 20 00 	mov    0x203250(%rip),%rdi        # 6044c0 <stderr@@GLIBC_2.2.5>
  401270:	e8 8b fb ff ff       	call   400e00 <fprintf@plt>
  401275:	b8 01 00 00 00       	mov    $0x1,%eax
  40127a:	e9 c2 00 00 00       	jmp    401341 <main+0x191>
  40127f:	ba 10 00 00 00       	mov    $0x10,%edx
  401284:	be 00 00 00 00       	mov    $0x0,%esi
  401289:	48 8b 3d 18 32 20 00 	mov    0x203218(%rip),%rdi        # 6044a8 <optarg@@GLIBC_2.2.5>
  401290:	e8 0b fc ff ff       	call   400ea0 <strtoul@plt>
  401295:	41 89 c6             	mov    %eax,%r14d
  401298:	48 89 ea             	mov    %rbp,%rdx
  40129b:	48 89 de             	mov    %rbx,%rsi
  40129e:	44 89 e7             	mov    %r12d,%edi
  4012a1:	e8 ea fb ff ff       	call   400e90 <getopt@plt>
  4012a6:	3c ff                	cmp    $0xff,%al
  4012a8:	74 52                	je     4012fc <main+0x14c>
  4012aa:	0f be f0             	movsbl %al,%esi
  4012ad:	83 e8 61             	sub    $0x61,%eax
  4012b0:	3c 10                	cmp    $0x10,%al
  4012b2:	77 31                	ja     4012e5 <main+0x135>
  4012b4:	0f b6 c0             	movzbl %al,%eax
  4012b7:	ff 24 c5 50 2f 40 00 	jmp    *0x402f50(,%rax,8)
  4012be:	ba 0a 00 00 00       	mov    $0xa,%edx
  4012c3:	be 00 00 00 00       	mov    $0x0,%esi
  4012c8:	48 8b 3d d9 31 20 00 	mov    0x2031d9(%rip),%rdi        # 6044a8 <optarg@@GLIBC_2.2.5>
  4012cf:	e8 3c fb ff ff       	call   400e10 <strtol@plt>
  4012d4:	41 89 c5             	mov    %eax,%r13d
  4012d7:	eb bf                	jmp    401298 <main+0xe8>
  4012d9:	c7 05 a5 31 20 00 00 	movl   $0x0,0x2031a5(%rip)        # 604488 <notify>
  4012e0:	00 00 00 
  4012e3:	eb b3                	jmp    401298 <main+0xe8>
  4012e5:	bf 2f 2f 40 00       	mov    $0x402f2f,%edi
  4012ea:	b8 00 00 00 00       	mov    $0x0,%eax
  4012ef:	e8 9c fa ff ff       	call   400d90 <printf@plt>
  4012f4:	48 8b 3b             	mov    (%rbx),%rdi
  4012f7:	e8 eb fc ff ff       	call   400fe7 <usage>
  4012fc:	be 00 00 00 00       	mov    $0x0,%esi
  401301:	44 89 ef             	mov    %r13d,%edi
  401304:	e8 5e fd ff ff       	call   401067 <initialize_target>
  401309:	83 3d f8 31 20 00 00 	cmpl   $0x0,0x2031f8(%rip)        # 604508 <is_checker>
  401310:	74 09                	je     40131b <main+0x16b>
  401312:	44 39 35 e7 31 20 00 	cmp    %r14d,0x2031e7(%rip)        # 604500 <authkey>
  401319:	75 2f                	jne    40134a <main+0x19a>
  40131b:	8b 35 e3 31 20 00    	mov    0x2031e3(%rip),%esi        # 604504 <cookie>
  401321:	bf 42 2f 40 00       	mov    $0x402f42,%edi
  401326:	b8 00 00 00 00       	mov    $0x0,%eax
  40132b:	e8 60 fa ff ff       	call   400d90 <printf@plt>
  401330:	48 8b 3d 49 31 20 00 	mov    0x203149(%rip),%rdi        # 604480 <buf_offset>
  401337:	e8 e4 0b 00 00       	call   401f20 <stable_launch>
  40133c:	b8 00 00 00 00       	mov    $0x0,%eax
  401341:	5b                   	pop    %rbx
  401342:	5d                   	pop    %rbp
  401343:	41 5c                	pop    %r12
  401345:	41 5d                	pop    %r13
  401347:	41 5e                	pop    %r14
  401349:	c3                   	ret    
  40134a:	44 89 f6             	mov    %r14d,%esi
  40134d:	bf 68 2e 40 00       	mov    $0x402e68,%edi
  401352:	b8 00 00 00 00       	mov    $0x0,%eax
  401357:	e8 34 fa ff ff       	call   400d90 <printf@plt>
  40135c:	b8 00 00 00 00       	mov    $0x0,%eax
  401361:	e8 fb 06 00 00       	call   401a61 <check_fail>
  401366:	eb b3                	jmp    40131b <main+0x16b>

0000000000401368 <scramble>:
  401368:	b8 00 00 00 00       	mov    $0x0,%eax
  40136d:	eb 11                	jmp    401380 <scramble+0x18>
  40136f:	69 d0 a1 a9 00 00    	imul   $0xa9a1,%eax,%edx
  401375:	01 fa                	add    %edi,%edx
  401377:	89 c1                	mov    %eax,%ecx
  401379:	89 54 8c d0          	mov    %edx,-0x30(%rsp,%rcx,4)
  40137d:	83 c0 01             	add    $0x1,%eax
  401380:	83 f8 09             	cmp    $0x9,%eax
  401383:	76 ea                	jbe    40136f <scramble+0x7>
  401385:	8b 44 24 d0          	mov    -0x30(%rsp),%eax
  401389:	69 c0 30 5f 00 00    	imul   $0x5f30,%eax,%eax
  40138f:	89 44 24 d0          	mov    %eax,-0x30(%rsp)
  401393:	8b 44 24 e8          	mov    -0x18(%rsp),%eax
  401397:	69 c0 1c 6b 00 00    	imul   $0x6b1c,%eax,%eax
  40139d:	89 44 24 e8          	mov    %eax,-0x18(%rsp)
  4013a1:	8b 44 24 e8          	mov    -0x18(%rsp),%eax
  4013a5:	69 c0 44 9d 00 00    	imul   $0x9d44,%eax,%eax
  4013ab:	89 44 24 e8          	mov    %eax,-0x18(%rsp)
  4013af:	8b 44 24 e8          	mov    -0x18(%rsp),%eax
  4013b3:	69 c0 b2 36 00 00    	imul   $0x36b2,%eax,%eax
  4013b9:	89 44 24 e8          	mov    %eax,-0x18(%rsp)
  4013bd:	8b 44 24 e0          	mov    -0x20(%rsp),%eax
  4013c1:	69 c0 aa 52 00 00    	imul   $0x52aa,%eax,%eax
  4013c7:	89 44 24 e0          	mov    %eax,-0x20(%rsp)
  4013cb:	8b 44 24 ec          	mov    -0x14(%rsp),%eax
  4013cf:	69 c0 e1 27 00 00    	imul   $0x27e1,%eax,%eax
  4013d5:	89 44 24 ec          	mov    %eax,-0x14(%rsp)
  4013d9:	8b 44 24 f4          	mov    -0xc(%rsp),%eax
  4013dd:	69 c0 21 a9 00 00    	imul   $0xa921,%eax,%eax
  4013e3:	89 44 24 f4          	mov    %eax,-0xc(%rsp)
  4013e7:	8b 44 24 d4          	mov    -0x2c(%rsp),%eax
  4013eb:	69 c0 dd e7 00 00    	imul   $0xe7dd,%eax,%eax
  4013f1:	89 44 24 d4          	mov    %eax,-0x2c(%rsp)
  4013f5:	8b 44 24 e4          	mov    -0x1c(%rsp),%eax
  4013f9:	69 c0 3c 1c 00 00    	imul   $0x1c3c,%eax,%eax
  4013ff:	89 44 24 e4          	mov    %eax,-0x1c(%rsp)
  401403:	8b 44 24 e8          	mov    -0x18(%rsp),%eax
  401407:	69 c0 ff 82 00 00    	imul   $0x82ff,%eax,%eax
  40140d:	89 44 24 e8          	mov    %eax,-0x18(%rsp)
  401411:	8b 44 24 d4          	mov    -0x2c(%rsp),%eax
  401415:	69 c0 0a 86 00 00    	imul   $0x860a,%eax,%eax
  40141b:	89 44 24 d4          	mov    %eax,-0x2c(%rsp)
  40141f:	8b 44 24 dc          	mov    -0x24(%rsp),%eax
  401423:	69 c0 19 80 00 00    	imul   $0x8019,%eax,%eax
  401429:	89 44 24 dc          	mov    %eax,-0x24(%rsp)
  40142d:	8b 44 24 d4          	mov    -0x2c(%rsp),%eax
  401431:	69 c0 af d0 00 00    	imul   $0xd0af,%eax,%eax
  401437:	89 44 24 d4          	mov    %eax,-0x2c(%rsp)
  40143b:	8b 44 24 e8          	mov    -0x18(%rsp),%eax
  40143f:	69 c0 35 32 00 00    	imul   $0x3235,%eax,%eax
  401445:	89 44 24 e8          	mov    %eax,-0x18(%rsp)
  401449:	8b 44 24 f0          	mov    -0x10(%rsp),%eax
  40144d:	69 c0 40 28 00 00    	imul   $0x2840,%eax,%eax
  401453:	89 44 24 f0          	mov    %eax,-0x10(%rsp)
  401457:	8b 44 24 e0          	mov    -0x20(%rsp),%eax
  40145b:	69 c0 d7 c2 00 00    	imul   $0xc2d7,%eax,%eax
  401461:	89 44 24 e0          	mov    %eax,-0x20(%rsp)
  401465:	8b 44 24 d4          	mov    -0x2c(%rsp),%eax
  401469:	69 c0 da f3 00 00    	imul   $0xf3da,%eax,%eax
  40146f:	89 44 24 d4          	mov    %eax,-0x2c(%rsp)
  401473:	8b 44 24 d8          	mov    -0x28(%rsp),%eax
  401477:	69 c0 0c a7 00 00    	imul   $0xa70c,%eax,%eax
  40147d:	89 44 24 d8          	mov    %eax,-0x28(%rsp)
  401481:	8b 44 24 d4          	mov    -0x2c(%rsp),%eax
  401485:	69 c0 c3 d6 00 00    	imul   $0xd6c3,%eax,%eax
  40148b:	89 44 24 d4          	mov    %eax,-0x2c(%rsp)
  40148f:	8b 44 24 e8          	mov    -0x18(%rsp),%eax
  401493:	69 c0 7e 67 00 00    	imul   $0x677e,%eax,%eax
  401499:	89 44 24 e8          	mov    %eax,-0x18(%rsp)
  40149d:	8b 44 24 dc          	mov    -0x24(%rsp),%eax
  4014a1:	69 c0 05 a9 00 00    	imul   $0xa905,%eax,%eax
  4014a7:	89 44 24 dc          	mov    %eax,-0x24(%rsp)
  4014ab:	8b 44 24 e4          	mov    -0x1c(%rsp),%eax
  4014af:	69 c0 31 cc 00 00    	imul   $0xcc31,%eax,%eax
  4014b5:	89 44 24 e4          	mov    %eax,-0x1c(%rsp)
  4014b9:	8b 44 24 d8          	mov    -0x28(%rsp),%eax
  4014bd:	69 c0 72 23 00 00    	imul   $0x2372,%eax,%eax
  4014c3:	89 44 24 d8          	mov    %eax,-0x28(%rsp)
  4014c7:	8b 44 24 e4          	mov    -0x1c(%rsp),%eax
  4014cb:	69 c0 8c d5 00 00    	imul   $0xd58c,%eax,%eax
  4014d1:	89 44 24 e4          	mov    %eax,-0x1c(%rsp)
  4014d5:	8b 44 24 e4          	mov    -0x1c(%rsp),%eax
  4014d9:	69 c0 70 84 00 00    	imul   $0x8470,%eax,%eax
  4014df:	89 44 24 e4          	mov    %eax,-0x1c(%rsp)
  4014e3:	8b 44 24 f0          	mov    -0x10(%rsp),%eax
  4014e7:	69 c0 83 c9 00 00    	imul   $0xc983,%eax,%eax
  4014ed:	89 44 24 f0          	mov    %eax,-0x10(%rsp)
  4014f1:	8b 44 24 e0          	mov    -0x20(%rsp),%eax
  4014f5:	69 c0 1d 6e 00 00    	imul   $0x6e1d,%eax,%eax
  4014fb:	89 44 24 e0          	mov    %eax,-0x20(%rsp)
  4014ff:	8b 44 24 f0          	mov    -0x10(%rsp),%eax
  401503:	69 c0 87 b6 00 00    	imul   $0xb687,%eax,%eax
  401509:	89 44 24 f0          	mov    %eax,-0x10(%rsp)
  40150d:	8b 44 24 e8          	mov    -0x18(%rsp),%eax
  401511:	69 c0 a5 83 00 00    	imul   $0x83a5,%eax,%eax
  401517:	89 44 24 e8          	mov    %eax,-0x18(%rsp)
  40151b:	8b 44 24 dc          	mov    -0x24(%rsp),%eax
  40151f:	69 c0 02 58 00 00    	imul   $0x5802,%eax,%eax
  401525:	89 44 24 dc          	mov    %eax,-0x24(%rsp)
  401529:	8b 44 24 dc          	mov    -0x24(%rsp),%eax
  40152d:	69 c0 34 5c 00 00    	imul   $0x5c34,%eax,%eax
  401533:	89 44 24 dc          	mov    %eax,-0x24(%rsp)
  401537:	8b 44 24 f0          	mov    -0x10(%rsp),%eax
  40153b:	69 c0 55 33 00 00    	imul   $0x3355,%eax,%eax
  401541:	89 44 24 f0          	mov    %eax,-0x10(%rsp)
  401545:	8b 44 24 d0          	mov    -0x30(%rsp),%eax
  401549:	69 c0 cd 48 00 00    	imul   $0x48cd,%eax,%eax
  40154f:	89 44 24 d0          	mov    %eax,-0x30(%rsp)
  401553:	8b 44 24 e0          	mov    -0x20(%rsp),%eax
  401557:	69 c0 2c e1 00 00    	imul   $0xe12c,%eax,%eax
  40155d:	89 44 24 e0          	mov    %eax,-0x20(%rsp)
  401561:	8b 44 24 d0          	mov    -0x30(%rsp),%eax
  401565:	69 c0 21 b8 00 00    	imul   $0xb821,%eax,%eax
  40156b:	89 44 24 d0          	mov    %eax,-0x30(%rsp)
  40156f:	8b 44 24 f0          	mov    -0x10(%rsp),%eax
  401573:	69 c0 fe 48 00 00    	imul   $0x48fe,%eax,%eax
  401579:	89 44 24 f0          	mov    %eax,-0x10(%rsp)
  40157d:	8b 44 24 dc          	mov    -0x24(%rsp),%eax
  401581:	69 c0 0a d8 00 00    	imul   $0xd80a,%eax,%eax
  401587:	89 44 24 dc          	mov    %eax,-0x24(%rsp)
  40158b:	8b 44 24 d0          	mov    -0x30(%rsp),%eax
  40158f:	69 c0 4d b3 00 00    	imul   $0xb34d,%eax,%eax
  401595:	89 44 24 d0          	mov    %eax,-0x30(%rsp)
  401599:	8b 44 24 e0          	mov    -0x20(%rsp),%eax
  40159d:	69 c0 3e c9 00 00    	imul   $0xc93e,%eax,%eax
  4015a3:	89 44 24 e0          	mov    %eax,-0x20(%rsp)
  4015a7:	8b 44 24 e0          	mov    -0x20(%rsp),%eax
  4015ab:	69 c0 2b 3b 00 00    	imul   $0x3b2b,%eax,%eax
  4015b1:	89 44 24 e0          	mov    %eax,-0x20(%rsp)
  4015b5:	8b 44 24 d4          	mov    -0x2c(%rsp),%eax
  4015b9:	69 c0 65 e1 00 00    	imul   $0xe165,%eax,%eax
  4015bf:	89 44 24 d4          	mov    %eax,-0x2c(%rsp)
  4015c3:	8b 44 24 d0          	mov    -0x30(%rsp),%eax
  4015c7:	69 c0 28 58 00 00    	imul   $0x5828,%eax,%eax
  4015cd:	89 44 24 d0          	mov    %eax,-0x30(%rsp)
  4015d1:	8b 44 24 ec          	mov    -0x14(%rsp),%eax
  4015d5:	69 c0 4b 4e 00 00    	imul   $0x4e4b,%eax,%eax
  4015db:	89 44 24 ec          	mov    %eax,-0x14(%rsp)
  4015df:	8b 44 24 dc          	mov    -0x24(%rsp),%eax
  4015e3:	69 c0 4e 8e 00 00    	imul   $0x8e4e,%eax,%eax
  4015e9:	89 44 24 dc          	mov    %eax,-0x24(%rsp)
  4015ed:	8b 44 24 e8          	mov    -0x18(%rsp),%eax
  4015f1:	69 c0 6c f7 00 00    	imul   $0xf76c,%eax,%eax
  4015f7:	89 44 24 e8          	mov    %eax,-0x18(%rsp)
  4015fb:	8b 44 24 e0          	mov    -0x20(%rsp),%eax
  4015ff:	69 c0 d6 7d 00 00    	imul   $0x7dd6,%eax,%eax
  401605:	89 44 24 e0          	mov    %eax,-0x20(%rsp)
  401609:	8b 44 24 e8          	mov    -0x18(%rsp),%eax
  40160d:	69 c0 2a 01 00 00    	imul   $0x12a,%eax,%eax
  401613:	89 44 24 e8          	mov    %eax,-0x18(%rsp)
  401617:	8b 44 24 ec          	mov    -0x14(%rsp),%eax
  40161b:	69 c0 af a3 00 00    	imul   $0xa3af,%eax,%eax
  401621:	89 44 24 ec          	mov    %eax,-0x14(%rsp)
  401625:	8b 44 24 e4          	mov    -0x1c(%rsp),%eax
  401629:	69 c0 8e 8b 00 00    	imul   $0x8b8e,%eax,%eax
  40162f:	89 44 24 e4          	mov    %eax,-0x1c(%rsp)
  401633:	8b 44 24 ec          	mov    -0x14(%rsp),%eax
  401637:	69 c0 87 69 00 00    	imul   $0x6987,%eax,%eax
  40163d:	89 44 24 ec          	mov    %eax,-0x14(%rsp)
  401641:	8b 44 24 d8          	mov    -0x28(%rsp),%eax
  401645:	69 c0 86 cd 00 00    	imul   $0xcd86,%eax,%eax
  40164b:	89 44 24 d8          	mov    %eax,-0x28(%rsp)
  40164f:	8b 44 24 e0          	mov    -0x20(%rsp),%eax
  401653:	69 c0 d5 a4 00 00    	imul   $0xa4d5,%eax,%eax
  401659:	89 44 24 e0          	mov    %eax,-0x20(%rsp)
  40165d:	8b 44 24 d4          	mov    -0x2c(%rsp),%eax
  401661:	69 c0 b5 c7 00 00    	imul   $0xc7b5,%eax,%eax
  401667:	89 44 24 d4          	mov    %eax,-0x2c(%rsp)
  40166b:	8b 44 24 dc          	mov    -0x24(%rsp),%eax
  40166f:	69 c0 0c a1 00 00    	imul   $0xa10c,%eax,%eax
  401675:	89 44 24 dc          	mov    %eax,-0x24(%rsp)
  401679:	8b 44 24 e0          	mov    -0x20(%rsp),%eax
  40167d:	69 c0 fd e0 00 00    	imul   $0xe0fd,%eax,%eax
  401683:	89 44 24 e0          	mov    %eax,-0x20(%rsp)
  401687:	8b 44 24 f0          	mov    -0x10(%rsp),%eax
  40168b:	69 c0 a1 de 00 00    	imul   $0xdea1,%eax,%eax
  401691:	89 44 24 f0          	mov    %eax,-0x10(%rsp)
  401695:	8b 44 24 e4          	mov    -0x1c(%rsp),%eax
  401699:	69 c0 e7 e0 00 00    	imul   $0xe0e7,%eax,%eax
  40169f:	89 44 24 e4          	mov    %eax,-0x1c(%rsp)
  4016a3:	8b 44 24 d8          	mov    -0x28(%rsp),%eax
  4016a7:	69 c0 e5 11 00 00    	imul   $0x11e5,%eax,%eax
  4016ad:	89 44 24 d8          	mov    %eax,-0x28(%rsp)
  4016b1:	8b 44 24 ec          	mov    -0x14(%rsp),%eax
  4016b5:	69 c0 79 45 00 00    	imul   $0x4579,%eax,%eax
  4016bb:	89 44 24 ec          	mov    %eax,-0x14(%rsp)
  4016bf:	8b 44 24 d4          	mov    -0x2c(%rsp),%eax
  4016c3:	69 c0 23 01 00 00    	imul   $0x123,%eax,%eax
  4016c9:	89 44 24 d4          	mov    %eax,-0x2c(%rsp)
  4016cd:	8b 44 24 e0          	mov    -0x20(%rsp),%eax
  4016d1:	69 c0 84 86 00 00    	imul   $0x8684,%eax,%eax
  4016d7:	89 44 24 e0          	mov    %eax,-0x20(%rsp)
  4016db:	8b 44 24 f0          	mov    -0x10(%rsp),%eax
  4016df:	69 c0 85 90 00 00    	imul   $0x9085,%eax,%eax
  4016e5:	89 44 24 f0          	mov    %eax,-0x10(%rsp)
  4016e9:	8b 44 24 d0          	mov    -0x30(%rsp),%eax
  4016ed:	69 c0 26 30 00 00    	imul   $0x3026,%eax,%eax
  4016f3:	89 44 24 d0          	mov    %eax,-0x30(%rsp)
  4016f7:	8b 44 24 f0          	mov    -0x10(%rsp),%eax
  4016fb:	69 c0 a5 d1 00 00    	imul   $0xd1a5,%eax,%eax
  401701:	89 44 24 f0          	mov    %eax,-0x10(%rsp)
  401705:	8b 44 24 f0          	mov    -0x10(%rsp),%eax
  401709:	69 c0 10 b9 00 00    	imul   $0xb910,%eax,%eax
  40170f:	89 44 24 f0          	mov    %eax,-0x10(%rsp)
  401713:	8b 44 24 e0          	mov    -0x20(%rsp),%eax
  401717:	69 c0 63 ff 00 00    	imul   $0xff63,%eax,%eax
  40171d:	89 44 24 e0          	mov    %eax,-0x20(%rsp)
  401721:	8b 44 24 e0          	mov    -0x20(%rsp),%eax
  401725:	69 c0 b2 ed 00 00    	imul   $0xedb2,%eax,%eax
  40172b:	89 44 24 e0          	mov    %eax,-0x20(%rsp)
  40172f:	8b 44 24 d0          	mov    -0x30(%rsp),%eax
  401733:	69 c0 26 2c 00 00    	imul   $0x2c26,%eax,%eax
  401739:	89 44 24 d0          	mov    %eax,-0x30(%rsp)
  40173d:	8b 44 24 e8          	mov    -0x18(%rsp),%eax
  401741:	69 c0 5b fc 00 00    	imul   $0xfc5b,%eax,%eax
  401747:	89 44 24 e8          	mov    %eax,-0x18(%rsp)
  40174b:	8b 44 24 e0          	mov    -0x20(%rsp),%eax
  40174f:	69 c0 5b 46 00 00    	imul   $0x465b,%eax,%eax
  401755:	89 44 24 e0          	mov    %eax,-0x20(%rsp)
  401759:	8b 44 24 e4          	mov    -0x1c(%rsp),%eax
  40175d:	69 c0 6a a9 00 00    	imul   $0xa96a,%eax,%eax
  401763:	89 44 24 e4          	mov    %eax,-0x1c(%rsp)
  401767:	8b 44 24 e4          	mov    -0x1c(%rsp),%eax
  40176b:	69 c0 bb 9f 00 00    	imul   $0x9fbb,%eax,%eax
  401771:	89 44 24 e4          	mov    %eax,-0x1c(%rsp)
  401775:	8b 44 24 d8          	mov    -0x28(%rsp),%eax
  401779:	69 c0 c6 5b 00 00    	imul   $0x5bc6,%eax,%eax
  40177f:	89 44 24 d8          	mov    %eax,-0x28(%rsp)
  401783:	8b 44 24 ec          	mov    -0x14(%rsp),%eax
  401787:	69 c0 84 b9 00 00    	imul   $0xb984,%eax,%eax
  40178d:	89 44 24 ec          	mov    %eax,-0x14(%rsp)
  401791:	8b 44 24 e4          	mov    -0x1c(%rsp),%eax
  401795:	69 c0 d3 51 00 00    	imul   $0x51d3,%eax,%eax
  40179b:	89 44 24 e4          	mov    %eax,-0x1c(%rsp)
  40179f:	8b 44 24 ec          	mov    -0x14(%rsp),%eax
  4017a3:	69 c0 24 de 00 00    	imul   $0xde24,%eax,%eax
  4017a9:	89 44 24 ec          	mov    %eax,-0x14(%rsp)
  4017ad:	8b 44 24 f0          	mov    -0x10(%rsp),%eax
  4017b1:	69 c0 a1 39 00 00    	imul   $0x39a1,%eax,%eax
  4017b7:	89 44 24 f0          	mov    %eax,-0x10(%rsp)
  4017bb:	8b 44 24 dc          	mov    -0x24(%rsp),%eax
  4017bf:	69 c0 05 60 00 00    	imul   $0x6005,%eax,%eax
  4017c5:	89 44 24 dc          	mov    %eax,-0x24(%rsp)
  4017c9:	8b 44 24 d8          	mov    -0x28(%rsp),%eax
  4017cd:	69 c0 de a2 00 00    	imul   $0xa2de,%eax,%eax
  4017d3:	89 44 24 d8          	mov    %eax,-0x28(%rsp)
  4017d7:	8b 44 24 f0          	mov    -0x10(%rsp),%eax
  4017db:	69 c0 7b 25 00 00    	imul   $0x257b,%eax,%eax
  4017e1:	89 44 24 f0          	mov    %eax,-0x10(%rsp)
  4017e5:	8b 44 24 f0          	mov    -0x10(%rsp),%eax
  4017e9:	69 c0 d7 6c 00 00    	imul   $0x6cd7,%eax,%eax
  4017ef:	89 44 24 f0          	mov    %eax,-0x10(%rsp)
  4017f3:	8b 44 24 e4          	mov    -0x1c(%rsp),%eax
  4017f7:	69 c0 84 e2 00 00    	imul   $0xe284,%eax,%eax
  4017fd:	89 44 24 e4          	mov    %eax,-0x1c(%rsp)
  401801:	8b 44 24 d8          	mov    -0x28(%rsp),%eax
  401805:	69 c0 17 c9 00 00    	imul   $0xc917,%eax,%eax
  40180b:	89 44 24 d8          	mov    %eax,-0x28(%rsp)
  40180f:	8b 44 24 d0          	mov    -0x30(%rsp),%eax
  401813:	69 c0 f1 0f 00 00    	imul   $0xff1,%eax,%eax
  401819:	89 44 24 d0          	mov    %eax,-0x30(%rsp)
  40181d:	8b 44 24 d4          	mov    -0x2c(%rsp),%eax
  401821:	69 c0 dd db 00 00    	imul   $0xdbdd,%eax,%eax
  401827:	89 44 24 d4          	mov    %eax,-0x2c(%rsp)
  40182b:	8b 44 24 d4          	mov    -0x2c(%rsp),%eax
  40182f:	69 c0 cb a2 00 00    	imul   $0xa2cb,%eax,%eax
  401835:	89 44 24 d4          	mov    %eax,-0x2c(%rsp)
  401839:	ba 00 00 00 00       	mov    $0x0,%edx
  40183e:	b8 00 00 00 00       	mov    $0x0,%eax
  401843:	eb 0b                	jmp    401850 <scramble+0x4e8>
  401845:	89 d1                	mov    %edx,%ecx
  401847:	8b 4c 8c d0          	mov    -0x30(%rsp,%rcx,4),%ecx
  40184b:	01 c8                	add    %ecx,%eax
  40184d:	83 c2 01             	add    $0x1,%edx
  401850:	83 fa 09             	cmp    $0x9,%edx
  401853:	76 f0                	jbe    401845 <scramble+0x4dd>
  401855:	f3 c3                	repz ret 

0000000000401857 <getbuf>:
  401857:	48 83 ec 28          	sub    $0x28,%rsp
  40185b:	48 89 e7             	mov    %rsp,%rdi
  40185e:	e8 2d 02 00 00       	call   401a90 <Gets>
  401863:	b8 01 00 00 00       	mov    $0x1,%eax
  401868:	48 83 c4 28          	add    $0x28,%rsp
  40186c:	c3                   	ret    

000000000040186d <touch1>:
  40186d:	48 83 ec 08          	sub    $0x8,%rsp
  401871:	c7 05 81 2c 20 00 01 	movl   $0x1,0x202c81(%rip)        # 6044fc <vlevel>
  401878:	00 00 00 
  40187b:	bf fd 2f 40 00       	mov    $0x402ffd,%edi
  401880:	e8 db f4 ff ff       	call   400d60 <puts@plt>
  401885:	bf 01 00 00 00       	mov    $0x1,%edi
  40188a:	e8 fc 03 00 00       	call   401c8b <validate>
  40188f:	bf 00 00 00 00       	mov    $0x0,%edi
  401894:	e8 37 f6 ff ff       	call   400ed0 <exit@plt>

0000000000401899 <touch2>:
  401899:	48 83 ec 08          	sub    $0x8,%rsp
  40189d:	89 fe                	mov    %edi,%esi
  40189f:	c7 05 53 2c 20 00 02 	movl   $0x2,0x202c53(%rip)        # 6044fc <vlevel>
  4018a6:	00 00 00 
  4018a9:	39 3d 55 2c 20 00    	cmp    %edi,0x202c55(%rip)        # 604504 <cookie>
  4018af:	74 23                	je     4018d4 <touch2+0x3b>
  4018b1:	bf 48 30 40 00       	mov    $0x403048,%edi
  4018b6:	b8 00 00 00 00       	mov    $0x0,%eax
  4018bb:	e8 d0 f4 ff ff       	call   400d90 <printf@plt>
  4018c0:	bf 02 00 00 00       	mov    $0x2,%edi
  4018c5:	e8 73 04 00 00       	call   401d3d <fail>
  4018ca:	bf 00 00 00 00       	mov    $0x0,%edi
  4018cf:	e8 fc f5 ff ff       	call   400ed0 <exit@plt>
  4018d4:	bf 20 30 40 00       	mov    $0x403020,%edi
  4018d9:	b8 00 00 00 00       	mov    $0x0,%eax
  4018de:	e8 ad f4 ff ff       	call   400d90 <printf@plt>
  4018e3:	bf 02 00 00 00       	mov    $0x2,%edi
  4018e8:	e8 9e 03 00 00       	call   401c8b <validate>
  4018ed:	eb db                	jmp    4018ca <touch2+0x31>

00000000004018ef <hexmatch>:
  4018ef:	41 54                	push   %r12
  4018f1:	55                   	push   %rbp
  4018f2:	53                   	push   %rbx
  4018f3:	48 83 ec 70          	sub    $0x70,%rsp
  4018f7:	89 fd                	mov    %edi,%ebp
  4018f9:	48 89 f3             	mov    %rsi,%rbx
  4018fc:	e8 3f f5 ff ff       	call   400e40 <random@plt>
  401901:	48 89 c1             	mov    %rax,%rcx
  401904:	48 ba 0b d7 a3 70 3d 	movabs $0xa3d70a3d70a3d70b,%rdx
  40190b:	0a d7 a3 
  40190e:	48 f7 ea             	imul   %rdx
  401911:	48 01 ca             	add    %rcx,%rdx
  401914:	48 c1 fa 06          	sar    $0x6,%rdx
  401918:	48 89 c8             	mov    %rcx,%rax
  40191b:	48 c1 f8 3f          	sar    $0x3f,%rax
  40191f:	48 29 c2             	sub    %rax,%rdx
  401922:	48 8d 04 92          	lea    (%rdx,%rdx,4),%rax
  401926:	48 8d 14 80          	lea    (%rax,%rax,4),%rdx
  40192a:	48 8d 04 95 00 00 00 	lea    0x0(,%rdx,4),%rax
  401931:	00 
  401932:	48 29 c1             	sub    %rax,%rcx
  401935:	4c 8d 24 0c          	lea    (%rsp,%rcx,1),%r12
  401939:	89 ea                	mov    %ebp,%edx
  40193b:	be 1a 30 40 00       	mov    $0x40301a,%esi
  401940:	4c 89 e7             	mov    %r12,%rdi
  401943:	b8 00 00 00 00       	mov    $0x0,%eax
  401948:	e8 73 f5 ff ff       	call   400ec0 <sprintf@plt>
  40194d:	ba 09 00 00 00       	mov    $0x9,%edx
  401952:	4c 89 e6             	mov    %r12,%rsi
  401955:	48 89 df             	mov    %rbx,%rdi
  401958:	e8 e3 f3 ff ff       	call   400d40 <strncmp@plt>
  40195d:	85 c0                	test   %eax,%eax
  40195f:	0f 94 c0             	sete   %al
  401962:	0f b6 c0             	movzbl %al,%eax
  401965:	48 83 c4 70          	add    $0x70,%rsp
  401969:	5b                   	pop    %rbx
  40196a:	5d                   	pop    %rbp
  40196b:	41 5c                	pop    %r12
  40196d:	c3                   	ret    

000000000040196e <touch3>:
  40196e:	53                   	push   %rbx
  40196f:	48 89 fb             	mov    %rdi,%rbx
  401972:	c7 05 80 2b 20 00 03 	movl   $0x3,0x202b80(%rip)        # 6044fc <vlevel>
  401979:	00 00 00 
  40197c:	48 89 fe             	mov    %rdi,%rsi
  40197f:	8b 3d 7f 2b 20 00    	mov    0x202b7f(%rip),%edi        # 604504 <cookie>
  401985:	e8 65 ff ff ff       	call   4018ef <hexmatch>
  40198a:	85 c0                	test   %eax,%eax
  40198c:	74 26                	je     4019b4 <touch3+0x46>
  40198e:	48 89 de             	mov    %rbx,%rsi
  401991:	bf 70 30 40 00       	mov    $0x403070,%edi
  401996:	b8 00 00 00 00       	mov    $0x0,%eax
  40199b:	e8 f0 f3 ff ff       	call   400d90 <printf@plt>
  4019a0:	bf 03 00 00 00       	mov    $0x3,%edi
  4019a5:	e8 e1 02 00 00       	call   401c8b <validate>
  4019aa:	bf 00 00 00 00       	mov    $0x0,%edi
  4019af:	e8 1c f5 ff ff       	call   400ed0 <exit@plt>
  4019b4:	48 89 de             	mov    %rbx,%rsi
  4019b7:	bf 98 30 40 00       	mov    $0x403098,%edi
  4019bc:	b8 00 00 00 00       	mov    $0x0,%eax
  4019c1:	e8 ca f3 ff ff       	call   400d90 <printf@plt>
  4019c6:	bf 03 00 00 00       	mov    $0x3,%edi
  4019cb:	e8 6d 03 00 00       	call   401d3d <fail>
  4019d0:	eb d8                	jmp    4019aa <touch3+0x3c>

00000000004019d2 <test>:
  4019d2:	48 83 ec 08          	sub    $0x8,%rsp
  4019d6:	b8 00 00 00 00       	mov    $0x0,%eax
  4019db:	e8 77 fe ff ff       	call   401857 <getbuf>
  4019e0:	89 c6                	mov    %eax,%esi
  4019e2:	bf c0 30 40 00       	mov    $0x4030c0,%edi
  4019e7:	b8 00 00 00 00       	mov    $0x0,%eax
  4019ec:	e8 9f f3 ff ff       	call   400d90 <printf@plt>
  4019f1:	48 83 c4 08          	add    $0x8,%rsp
  4019f5:	c3                   	ret    

00000000004019f6 <save_char>:
  4019f6:	8b 05 28 37 20 00    	mov    0x203728(%rip),%eax        # 605124 <gets_cnt>
  4019fc:	3d ff 03 00 00       	cmp    $0x3ff,%eax
  401a01:	7f 49                	jg     401a4c <save_char+0x56>
  401a03:	89 f9                	mov    %edi,%ecx
  401a05:	c0 e9 04             	shr    $0x4,%cl
  401a08:	8d 14 40             	lea    (%rax,%rax,2),%edx
  401a0b:	83 e1 0f             	and    $0xf,%ecx
  401a0e:	0f b6 b1 e0 33 40 00 	movzbl 0x4033e0(%rcx),%esi
  401a15:	48 63 ca             	movslq %edx,%rcx
  401a18:	40 88 b1 20 45 60 00 	mov    %sil,0x604520(%rcx)
  401a1f:	8d 4a 01             	lea    0x1(%rdx),%ecx
  401a22:	83 e7 0f             	and    $0xf,%edi
  401a25:	0f b6 b7 e0 33 40 00 	movzbl 0x4033e0(%rdi),%esi
  401a2c:	48 63 c9             	movslq %ecx,%rcx
  401a2f:	40 88 b1 20 45 60 00 	mov    %sil,0x604520(%rcx)
  401a36:	83 c2 02             	add    $0x2,%edx
  401a39:	48 63 d2             	movslq %edx,%rdx
  401a3c:	c6 82 20 45 60 00 20 	movb   $0x20,0x604520(%rdx)
  401a43:	83 c0 01             	add    $0x1,%eax
  401a46:	89 05 d8 36 20 00    	mov    %eax,0x2036d8(%rip)        # 605124 <gets_cnt>
  401a4c:	f3 c3                	repz ret 

0000000000401a4e <save_term>:
  401a4e:	8b 05 d0 36 20 00    	mov    0x2036d0(%rip),%eax        # 605124 <gets_cnt>
  401a54:	8d 04 40             	lea    (%rax,%rax,2),%eax
  401a57:	48 98                	cltq   
  401a59:	c6 80 20 45 60 00 00 	movb   $0x0,0x604520(%rax)
  401a60:	c3                   	ret    

0000000000401a61 <check_fail>:
  401a61:	48 83 ec 08          	sub    $0x8,%rsp
  401a65:	0f be 35 bc 36 20 00 	movsbl 0x2036bc(%rip),%esi        # 605128 <target_prefix>
  401a6c:	b9 20 45 60 00       	mov    $0x604520,%ecx
  401a71:	8b 15 81 2a 20 00    	mov    0x202a81(%rip),%edx        # 6044f8 <check_level>
  401a77:	bf e3 30 40 00       	mov    $0x4030e3,%edi
  401a7c:	b8 00 00 00 00       	mov    $0x0,%eax
  401a81:	e8 0a f3 ff ff       	call   400d90 <printf@plt>
  401a86:	bf 01 00 00 00       	mov    $0x1,%edi
  401a8b:	e8 40 f4 ff ff       	call   400ed0 <exit@plt>

0000000000401a90 <Gets>:
  401a90:	41 54                	push   %r12
  401a92:	55                   	push   %rbp
  401a93:	53                   	push   %rbx
  401a94:	49 89 fc             	mov    %rdi,%r12
  401a97:	c7 05 83 36 20 00 00 	movl   $0x0,0x203683(%rip)        # 605124 <gets_cnt>
  401a9e:	00 00 00 
  401aa1:	48 89 fb             	mov    %rdi,%rbx
  401aa4:	eb 11                	jmp    401ab7 <Gets+0x27>
  401aa6:	48 8d 6b 01          	lea    0x1(%rbx),%rbp
  401aaa:	88 03                	mov    %al,(%rbx)
  401aac:	0f b6 f8             	movzbl %al,%edi
  401aaf:	e8 42 ff ff ff       	call   4019f6 <save_char>
  401ab4:	48 89 eb             	mov    %rbp,%rbx
  401ab7:	48 8b 3d 32 2a 20 00 	mov    0x202a32(%rip),%rdi        # 6044f0 <infile>
  401abe:	e8 2d f4 ff ff       	call   400ef0 <getc@plt>
  401ac3:	83 f8 ff             	cmp    $0xffffffff,%eax
  401ac6:	74 05                	je     401acd <Gets+0x3d>
  401ac8:	83 f8 0a             	cmp    $0xa,%eax
  401acb:	75 d9                	jne    401aa6 <Gets+0x16>
  401acd:	c6 03 00             	movb   $0x0,(%rbx)
  401ad0:	b8 00 00 00 00       	mov    $0x0,%eax
  401ad5:	e8 74 ff ff ff       	call   401a4e <save_term>
  401ada:	4c 89 e0             	mov    %r12,%rax
  401add:	5b                   	pop    %rbx
  401ade:	5d                   	pop    %rbp
  401adf:	41 5c                	pop    %r12
  401ae1:	c3                   	ret    

0000000000401ae2 <notify_server>:
  401ae2:	83 3d 1f 2a 20 00 00 	cmpl   $0x0,0x202a1f(%rip)        # 604508 <is_checker>
  401ae9:	0f 85 9a 01 00 00    	jne    401c89 <notify_server+0x1a7>
  401aef:	55                   	push   %rbp
  401af0:	53                   	push   %rbx
  401af1:	48 81 ec 08 40 00 00 	sub    $0x4008,%rsp
  401af8:	89 fb                	mov    %edi,%ebx
  401afa:	8b 05 24 36 20 00    	mov    0x203624(%rip),%eax        # 605124 <gets_cnt>
  401b00:	83 c0 64             	add    $0x64,%eax
  401b03:	3d 00 20 00 00       	cmp    $0x2000,%eax
  401b08:	0f 8f b5 00 00 00    	jg     401bc3 <notify_server+0xe1>
  401b0e:	44 0f be 0d 12 36 20 	movsbl 0x203612(%rip),%r9d        # 605128 <target_prefix>
  401b15:	00 
  401b16:	83 3d 6b 29 20 00 00 	cmpl   $0x0,0x20296b(%rip)        # 604488 <notify>
  401b1d:	0f 84 b9 00 00 00    	je     401bdc <notify_server+0xfa>
  401b23:	44 8b 05 d6 29 20 00 	mov    0x2029d6(%rip),%r8d        # 604500 <authkey>
  401b2a:	85 db                	test   %ebx,%ebx
  401b2c:	0f 84 b5 00 00 00    	je     401be7 <notify_server+0x105>
  401b32:	bd f9 30 40 00       	mov    $0x4030f9,%ebp
  401b37:	68 20 45 60 00       	push   $0x604520
  401b3c:	56                   	push   %rsi
  401b3d:	48 89 e9             	mov    %rbp,%rcx
  401b40:	8b 15 02 26 20 00    	mov    0x202602(%rip),%edx        # 604148 <target_id>
  401b46:	be 03 31 40 00       	mov    $0x403103,%esi
  401b4b:	48 8d bc 24 10 20 00 	lea    0x2010(%rsp),%rdi
  401b52:	00 
  401b53:	b8 00 00 00 00       	mov    $0x0,%eax
  401b58:	e8 63 f3 ff ff       	call   400ec0 <sprintf@plt>
  401b5d:	48 83 c4 10          	add    $0x10,%rsp
  401b61:	83 3d 20 29 20 00 00 	cmpl   $0x0,0x202920(%rip)        # 604488 <notify>
  401b68:	0f 84 ab 00 00 00    	je     401c19 <notify_server+0x137>
  401b6e:	85 db                	test   %ebx,%ebx
  401b70:	0f 84 97 00 00 00    	je     401c0d <notify_server+0x12b>
  401b76:	49 89 e1             	mov    %rsp,%r9
  401b79:	41 b8 00 00 00 00    	mov    $0x0,%r8d
  401b7f:	48 8d 8c 24 00 20 00 	lea    0x2000(%rsp),%rcx
  401b86:	00 
  401b87:	48 8b 15 c2 25 20 00 	mov    0x2025c2(%rip),%rdx        # 604150 <lab>
  401b8e:	48 8b 35 c3 25 20 00 	mov    0x2025c3(%rip),%rsi        # 604158 <course>
  401b95:	48 8b 3d a4 25 20 00 	mov    0x2025a4(%rip),%rdi        # 604140 <user_id>
  401b9c:	e8 db 0f 00 00       	call   402b7c <driver_post>
  401ba1:	85 c0                	test   %eax,%eax
  401ba3:	78 4c                	js     401bf1 <notify_server+0x10f>
  401ba5:	bf 48 32 40 00       	mov    $0x403248,%edi
  401baa:	e8 b1 f1 ff ff       	call   400d60 <puts@plt>
  401baf:	bf 2b 31 40 00       	mov    $0x40312b,%edi
  401bb4:	e8 a7 f1 ff ff       	call   400d60 <puts@plt>
  401bb9:	48 81 c4 08 40 00 00 	add    $0x4008,%rsp
  401bc0:	5b                   	pop    %rbx
  401bc1:	5d                   	pop    %rbp
  401bc2:	c3                   	ret    
  401bc3:	bf 18 32 40 00       	mov    $0x403218,%edi
  401bc8:	b8 00 00 00 00       	mov    $0x0,%eax
  401bcd:	e8 be f1 ff ff       	call   400d90 <printf@plt>
  401bd2:	bf 01 00 00 00       	mov    $0x1,%edi
  401bd7:	e8 f4 f2 ff ff       	call   400ed0 <exit@plt>
  401bdc:	41 b8 ff ff ff ff    	mov    $0xffffffff,%r8d
  401be2:	e9 43 ff ff ff       	jmp    401b2a <notify_server+0x48>
  401be7:	bd fe 30 40 00       	mov    $0x4030fe,%ebp
  401bec:	e9 46 ff ff ff       	jmp    401b37 <notify_server+0x55>
  401bf1:	48 89 e6             	mov    %rsp,%rsi
  401bf4:	bf 1f 31 40 00       	mov    $0x40311f,%edi
  401bf9:	b8 00 00 00 00       	mov    $0x0,%eax
  401bfe:	e8 8d f1 ff ff       	call   400d90 <printf@plt>
  401c03:	bf 01 00 00 00       	mov    $0x1,%edi
  401c08:	e8 c3 f2 ff ff       	call   400ed0 <exit@plt>
  401c0d:	bf 35 31 40 00       	mov    $0x403135,%edi
  401c12:	e8 49 f1 ff ff       	call   400d60 <puts@plt>
  401c17:	eb a0                	jmp    401bb9 <notify_server+0xd7>
  401c19:	48 89 ee             	mov    %rbp,%rsi
  401c1c:	bf 80 32 40 00       	mov    $0x403280,%edi
  401c21:	b8 00 00 00 00       	mov    $0x0,%eax
  401c26:	e8 65 f1 ff ff       	call   400d90 <printf@plt>
  401c2b:	48 8b 35 0e 25 20 00 	mov    0x20250e(%rip),%rsi        # 604140 <user_id>
  401c32:	bf 3c 31 40 00       	mov    $0x40313c,%edi
  401c37:	b8 00 00 00 00       	mov    $0x0,%eax
  401c3c:	e8 4f f1 ff ff       	call   400d90 <printf@plt>
  401c41:	48 8b 35 10 25 20 00 	mov    0x202510(%rip),%rsi        # 604158 <course>
  401c48:	bf 49 31 40 00       	mov    $0x403149,%edi
  401c4d:	b8 00 00 00 00       	mov    $0x0,%eax
  401c52:	e8 39 f1 ff ff       	call   400d90 <printf@plt>
  401c57:	48 8b 35 f2 24 20 00 	mov    0x2024f2(%rip),%rsi        # 604150 <lab>
  401c5e:	bf 55 31 40 00       	mov    $0x403155,%edi
  401c63:	b8 00 00 00 00       	mov    $0x0,%eax
  401c68:	e8 23 f1 ff ff       	call   400d90 <printf@plt>
  401c6d:	48 8d b4 24 00 20 00 	lea    0x2000(%rsp),%rsi
  401c74:	00 
  401c75:	bf 5e 31 40 00       	mov    $0x40315e,%edi
  401c7a:	b8 00 00 00 00       	mov    $0x0,%eax
  401c7f:	e8 0c f1 ff ff       	call   400d90 <printf@plt>
  401c84:	e9 30 ff ff ff       	jmp    401bb9 <notify_server+0xd7>
  401c89:	f3 c3                	repz ret 

0000000000401c8b <validate>:
  401c8b:	53                   	push   %rbx
  401c8c:	89 fb                	mov    %edi,%ebx
  401c8e:	83 3d 73 28 20 00 00 	cmpl   $0x0,0x202873(%rip)        # 604508 <is_checker>
  401c95:	74 60                	je     401cf7 <validate+0x6c>
  401c97:	39 3d 5f 28 20 00    	cmp    %edi,0x20285f(%rip)        # 6044fc <vlevel>
  401c9d:	75 29                	jne    401cc8 <validate+0x3d>
  401c9f:	8b 35 53 28 20 00    	mov    0x202853(%rip),%esi        # 6044f8 <check_level>
  401ca5:	39 fe                	cmp    %edi,%esi
  401ca7:	75 33                	jne    401cdc <validate+0x51>
  401ca9:	0f be 35 78 34 20 00 	movsbl 0x203478(%rip),%esi        # 605128 <target_prefix>
  401cb0:	b9 20 45 60 00       	mov    $0x604520,%ecx
  401cb5:	89 fa                	mov    %edi,%edx
  401cb7:	bf 88 31 40 00       	mov    $0x403188,%edi
  401cbc:	b8 00 00 00 00       	mov    $0x0,%eax
  401cc1:	e8 ca f0 ff ff       	call   400d90 <printf@plt>
  401cc6:	5b                   	pop    %rbx
  401cc7:	c3                   	ret    
  401cc8:	bf 6a 31 40 00       	mov    $0x40316a,%edi
  401ccd:	e8 8e f0 ff ff       	call   400d60 <puts@plt>
  401cd2:	b8 00 00 00 00       	mov    $0x0,%eax
  401cd7:	e8 85 fd ff ff       	call   401a61 <check_fail>
  401cdc:	89 fa                	mov    %edi,%edx
  401cde:	bf a8 32 40 00       	mov    $0x4032a8,%edi
  401ce3:	b8 00 00 00 00       	mov    $0x0,%eax
  401ce8:	e8 a3 f0 ff ff       	call   400d90 <printf@plt>
  401ced:	b8 00 00 00 00       	mov    $0x0,%eax
  401cf2:	e8 6a fd ff ff       	call   401a61 <check_fail>
  401cf7:	39 3d ff 27 20 00    	cmp    %edi,0x2027ff(%rip)        # 6044fc <vlevel>
  401cfd:	74 18                	je     401d17 <validate+0x8c>
  401cff:	bf 6a 31 40 00       	mov    $0x40316a,%edi
  401d04:	e8 57 f0 ff ff       	call   400d60 <puts@plt>
  401d09:	89 de                	mov    %ebx,%esi
  401d0b:	bf 00 00 00 00       	mov    $0x0,%edi
  401d10:	e8 cd fd ff ff       	call   401ae2 <notify_server>
  401d15:	eb af                	jmp    401cc6 <validate+0x3b>
  401d17:	0f be 15 0a 34 20 00 	movsbl 0x20340a(%rip),%edx        # 605128 <target_prefix>
  401d1e:	89 fe                	mov    %edi,%esi
  401d20:	bf d0 32 40 00       	mov    $0x4032d0,%edi
  401d25:	b8 00 00 00 00       	mov    $0x0,%eax
  401d2a:	e8 61 f0 ff ff       	call   400d90 <printf@plt>
  401d2f:	89 de                	mov    %ebx,%esi
  401d31:	bf 01 00 00 00       	mov    $0x1,%edi
  401d36:	e8 a7 fd ff ff       	call   401ae2 <notify_server>
  401d3b:	eb 89                	jmp    401cc6 <validate+0x3b>

0000000000401d3d <fail>:
  401d3d:	48 83 ec 08          	sub    $0x8,%rsp
  401d41:	83 3d c0 27 20 00 00 	cmpl   $0x0,0x2027c0(%rip)        # 604508 <is_checker>
  401d48:	75 11                	jne    401d5b <fail+0x1e>
  401d4a:	89 fe                	mov    %edi,%esi
  401d4c:	bf 00 00 00 00       	mov    $0x0,%edi
  401d51:	e8 8c fd ff ff       	call   401ae2 <notify_server>
  401d56:	48 83 c4 08          	add    $0x8,%rsp
  401d5a:	c3                   	ret    
  401d5b:	b8 00 00 00 00       	mov    $0x0,%eax
  401d60:	e8 fc fc ff ff       	call   401a61 <check_fail>

0000000000401d65 <bushandler>:
  401d65:	48 83 ec 08          	sub    $0x8,%rsp
  401d69:	83 3d 98 27 20 00 00 	cmpl   $0x0,0x202798(%rip)        # 604508 <is_checker>
  401d70:	74 14                	je     401d86 <bushandler+0x21>
  401d72:	bf 9d 31 40 00       	mov    $0x40319d,%edi
  401d77:	e8 e4 ef ff ff       	call   400d60 <puts@plt>
  401d7c:	b8 00 00 00 00       	mov    $0x0,%eax
  401d81:	e8 db fc ff ff       	call   401a61 <check_fail>
  401d86:	bf 08 33 40 00       	mov    $0x403308,%edi
  401d8b:	e8 d0 ef ff ff       	call   400d60 <puts@plt>
  401d90:	bf a7 31 40 00       	mov    $0x4031a7,%edi
  401d95:	e8 c6 ef ff ff       	call   400d60 <puts@plt>
  401d9a:	be 00 00 00 00       	mov    $0x0,%esi
  401d9f:	bf 00 00 00 00       	mov    $0x0,%edi
  401da4:	e8 39 fd ff ff       	call   401ae2 <notify_server>
  401da9:	bf 01 00 00 00       	mov    $0x1,%edi
  401dae:	e8 1d f1 ff ff       	call   400ed0 <exit@plt>

0000000000401db3 <seghandler>:
  401db3:	48 83 ec 08          	sub    $0x8,%rsp
  401db7:	83 3d 4a 27 20 00 00 	cmpl   $0x0,0x20274a(%rip)        # 604508 <is_checker>
  401dbe:	74 14                	je     401dd4 <seghandler+0x21>
  401dc0:	bf bd 31 40 00       	mov    $0x4031bd,%edi
  401dc5:	e8 96 ef ff ff       	call   400d60 <puts@plt>
  401dca:	b8 00 00 00 00       	mov    $0x0,%eax
  401dcf:	e8 8d fc ff ff       	call   401a61 <check_fail>
  401dd4:	bf 28 33 40 00       	mov    $0x403328,%edi
  401dd9:	e8 82 ef ff ff       	call   400d60 <puts@plt>
  401dde:	bf a7 31 40 00       	mov    $0x4031a7,%edi
  401de3:	e8 78 ef ff ff       	call   400d60 <puts@plt>
  401de8:	be 00 00 00 00       	mov    $0x0,%esi
  401ded:	bf 00 00 00 00       	mov    $0x0,%edi
  401df2:	e8 eb fc ff ff       	call   401ae2 <notify_server>
  401df7:	bf 01 00 00 00       	mov    $0x1,%edi
  401dfc:	e8 cf f0 ff ff       	call   400ed0 <exit@plt>

0000000000401e01 <illegalhandler>:
  401e01:	48 83 ec 08          	sub    $0x8,%rsp
  401e05:	83 3d fc 26 20 00 00 	cmpl   $0x0,0x2026fc(%rip)        # 604508 <is_checker>
  401e0c:	74 14                	je     401e22 <illegalhandler+0x21>
  401e0e:	bf d0 31 40 00       	mov    $0x4031d0,%edi
  401e13:	e8 48 ef ff ff       	call   400d60 <puts@plt>
  401e18:	b8 00 00 00 00       	mov    $0x0,%eax
  401e1d:	e8 3f fc ff ff       	call   401a61 <check_fail>
  401e22:	bf 50 33 40 00       	mov    $0x403350,%edi
  401e27:	e8 34 ef ff ff       	call   400d60 <puts@plt>
  401e2c:	bf a7 31 40 00       	mov    $0x4031a7,%edi
  401e31:	e8 2a ef ff ff       	call   400d60 <puts@plt>
  401e36:	be 00 00 00 00       	mov    $0x0,%esi
  401e3b:	bf 00 00 00 00       	mov    $0x0,%edi
  401e40:	e8 9d fc ff ff       	call   401ae2 <notify_server>
  401e45:	bf 01 00 00 00       	mov    $0x1,%edi
  401e4a:	e8 81 f0 ff ff       	call   400ed0 <exit@plt>

0000000000401e4f <sigalrmhandler>:
  401e4f:	48 83 ec 08          	sub    $0x8,%rsp
  401e53:	83 3d ae 26 20 00 00 	cmpl   $0x0,0x2026ae(%rip)        # 604508 <is_checker>
  401e5a:	74 14                	je     401e70 <sigalrmhandler+0x21>
  401e5c:	bf e4 31 40 00       	mov    $0x4031e4,%edi
  401e61:	e8 fa ee ff ff       	call   400d60 <puts@plt>
  401e66:	b8 00 00 00 00       	mov    $0x0,%eax
  401e6b:	e8 f1 fb ff ff       	call   401a61 <check_fail>
  401e70:	be 05 00 00 00       	mov    $0x5,%esi
  401e75:	bf 80 33 40 00       	mov    $0x403380,%edi
  401e7a:	b8 00 00 00 00       	mov    $0x0,%eax
  401e7f:	e8 0c ef ff ff       	call   400d90 <printf@plt>
  401e84:	be 00 00 00 00       	mov    $0x0,%esi
  401e89:	bf 00 00 00 00       	mov    $0x0,%edi
  401e8e:	e8 4f fc ff ff       	call   401ae2 <notify_server>
  401e93:	bf 01 00 00 00       	mov    $0x1,%edi
  401e98:	e8 33 f0 ff ff       	call   400ed0 <exit@plt>

0000000000401e9d <launch>:
  401e9d:	55                   	push   %rbp
  401e9e:	48 89 e5             	mov    %rsp,%rbp
  401ea1:	48 89 fa             	mov    %rdi,%rdx
  401ea4:	48 8d 47 1e          	lea    0x1e(%rdi),%rax
  401ea8:	48 83 e0 f0          	and    $0xfffffffffffffff0,%rax
  401eac:	48 29 c4             	sub    %rax,%rsp
  401eaf:	48 8d 7c 24 0f       	lea    0xf(%rsp),%rdi
  401eb4:	48 83 e7 f0          	and    $0xfffffffffffffff0,%rdi
  401eb8:	be f4 00 00 00       	mov    $0xf4,%esi
  401ebd:	e8 de ee ff ff       	call   400da0 <memset@plt>
  401ec2:	48 8b 05 d7 25 20 00 	mov    0x2025d7(%rip),%rax        # 6044a0 <stdin@@GLIBC_2.2.5>
  401ec9:	48 39 05 20 26 20 00 	cmp    %rax,0x202620(%rip)        # 6044f0 <infile>
  401ed0:	74 29                	je     401efb <launch+0x5e>
  401ed2:	c7 05 20 26 20 00 00 	movl   $0x0,0x202620(%rip)        # 6044fc <vlevel>
  401ed9:	00 00 00 
  401edc:	b8 00 00 00 00       	mov    $0x0,%eax
  401ee1:	e8 ec fa ff ff       	call   4019d2 <test>
  401ee6:	83 3d 1b 26 20 00 00 	cmpl   $0x0,0x20261b(%rip)        # 604508 <is_checker>
  401eed:	75 1d                	jne    401f0c <launch+0x6f>
  401eef:	bf 04 32 40 00       	mov    $0x403204,%edi
  401ef4:	e8 67 ee ff ff       	call   400d60 <puts@plt>
  401ef9:	c9                   	leave  
  401efa:	c3                   	ret    
  401efb:	bf ec 31 40 00       	mov    $0x4031ec,%edi
  401f00:	b8 00 00 00 00       	mov    $0x0,%eax
  401f05:	e8 86 ee ff ff       	call   400d90 <printf@plt>
  401f0a:	eb c6                	jmp    401ed2 <launch+0x35>
  401f0c:	bf f9 31 40 00       	mov    $0x4031f9,%edi
  401f11:	e8 4a ee ff ff       	call   400d60 <puts@plt>
  401f16:	b8 00 00 00 00       	mov    $0x0,%eax
  401f1b:	e8 41 fb ff ff       	call   401a61 <check_fail>

0000000000401f20 <stable_launch>:
  401f20:	53                   	push   %rbx
  401f21:	48 89 3d c0 25 20 00 	mov    %rdi,0x2025c0(%rip)        # 6044e8 <global_offset>
  401f28:	41 b9 00 00 00 00    	mov    $0x0,%r9d
  401f2e:	41 b8 00 00 00 00    	mov    $0x0,%r8d
  401f34:	b9 32 01 00 00       	mov    $0x132,%ecx
  401f39:	ba 07 00 00 00       	mov    $0x7,%edx
  401f3e:	be 00 00 10 00       	mov    $0x100000,%esi
  401f43:	bf 00 60 58 55       	mov    $0x55586000,%edi
  401f48:	e8 33 ee ff ff       	call   400d80 <mmap@plt>
  401f4d:	48 89 c3             	mov    %rax,%rbx
  401f50:	48 3d 00 60 58 55    	cmp    $0x55586000,%rax
  401f56:	75 43                	jne    401f9b <stable_launch+0x7b>
  401f58:	48 8d 90 f8 ff 0f 00 	lea    0xffff8(%rax),%rdx
  401f5f:	48 89 15 ca 31 20 00 	mov    %rdx,0x2031ca(%rip)        # 605130 <stack_top>
  401f66:	48 89 e0             	mov    %rsp,%rax
  401f69:	48 89 d4             	mov    %rdx,%rsp
  401f6c:	48 89 c2             	mov    %rax,%rdx
  401f6f:	48 89 15 6a 25 20 00 	mov    %rdx,0x20256a(%rip)        # 6044e0 <global_save_stack>
  401f76:	48 8b 3d 6b 25 20 00 	mov    0x20256b(%rip),%rdi        # 6044e8 <global_offset>
  401f7d:	e8 1b ff ff ff       	call   401e9d <launch>
  401f82:	48 8b 05 57 25 20 00 	mov    0x202557(%rip),%rax        # 6044e0 <global_save_stack>
  401f89:	48 89 c4             	mov    %rax,%rsp
  401f8c:	be 00 00 10 00       	mov    $0x100000,%esi
  401f91:	48 89 df             	mov    %rbx,%rdi
  401f94:	e8 c7 ee ff ff       	call   400e60 <munmap@plt>
  401f99:	5b                   	pop    %rbx
  401f9a:	c3                   	ret    
  401f9b:	be 00 00 10 00       	mov    $0x100000,%esi
  401fa0:	48 89 c7             	mov    %rax,%rdi
  401fa3:	e8 b8 ee ff ff       	call   400e60 <munmap@plt>
  401fa8:	ba 00 60 58 55       	mov    $0x55586000,%edx
  401fad:	be b8 33 40 00       	mov    $0x4033b8,%esi
  401fb2:	48 8b 3d 07 25 20 00 	mov    0x202507(%rip),%rdi        # 6044c0 <stderr@@GLIBC_2.2.5>
  401fb9:	b8 00 00 00 00       	mov    $0x0,%eax
  401fbe:	e8 3d ee ff ff       	call   400e00 <fprintf@plt>
  401fc3:	bf 01 00 00 00       	mov    $0x1,%edi
  401fc8:	e8 03 ef ff ff       	call   400ed0 <exit@plt>

0000000000401fcd <rio_readinitb>:
  401fcd:	89 37                	mov    %esi,(%rdi)
  401fcf:	c7 47 04 00 00 00 00 	movl   $0x0,0x4(%rdi)
  401fd6:	48 8d 47 10          	lea    0x10(%rdi),%rax
  401fda:	48 89 47 08          	mov    %rax,0x8(%rdi)
  401fde:	c3                   	ret    

0000000000401fdf <sigalrm_handler>:
  401fdf:	48 83 ec 08          	sub    $0x8,%rsp
  401fe3:	ba 00 00 00 00       	mov    $0x0,%edx
  401fe8:	be f0 33 40 00       	mov    $0x4033f0,%esi
  401fed:	48 8b 3d cc 24 20 00 	mov    0x2024cc(%rip),%rdi        # 6044c0 <stderr@@GLIBC_2.2.5>
  401ff4:	b8 00 00 00 00       	mov    $0x0,%eax
  401ff9:	e8 02 ee ff ff       	call   400e00 <fprintf@plt>
  401ffe:	bf 01 00 00 00       	mov    $0x1,%edi
  402003:	e8 c8 ee ff ff       	call   400ed0 <exit@plt>

0000000000402008 <urlencode>:
  402008:	41 54                	push   %r12
  40200a:	55                   	push   %rbp
  40200b:	53                   	push   %rbx
  40200c:	48 83 ec 10          	sub    $0x10,%rsp
  402010:	48 89 fb             	mov    %rdi,%rbx
  402013:	48 89 f5             	mov    %rsi,%rbp
  402016:	48 c7 c1 ff ff ff ff 	mov    $0xffffffffffffffff,%rcx
  40201d:	b8 00 00 00 00       	mov    $0x0,%eax
  402022:	f2 ae                	repnz scas %es:(%rdi),%al
  402024:	48 89 ce             	mov    %rcx,%rsi
  402027:	48 f7 d6             	not    %rsi
  40202a:	8d 46 ff             	lea    -0x1(%rsi),%eax
  40202d:	eb 0e                	jmp    40203d <urlencode+0x35>
  40202f:	88 45 00             	mov    %al,0x0(%rbp)
  402032:	48 8d 6d 01          	lea    0x1(%rbp),%rbp
  402036:	48 83 c3 01          	add    $0x1,%rbx
  40203a:	44 89 e0             	mov    %r12d,%eax
  40203d:	44 8d 60 ff          	lea    -0x1(%rax),%r12d
  402041:	85 c0                	test   %eax,%eax
  402043:	0f 84 91 00 00 00    	je     4020da <urlencode+0xd2>
  402049:	0f b6 03             	movzbl (%rbx),%eax
  40204c:	3c 2a                	cmp    $0x2a,%al
  40204e:	0f 94 c1             	sete   %cl
  402051:	3c 2d                	cmp    $0x2d,%al
  402053:	0f 94 c2             	sete   %dl
  402056:	08 d1                	or     %dl,%cl
  402058:	75 d5                	jne    40202f <urlencode+0x27>
  40205a:	3c 2e                	cmp    $0x2e,%al
  40205c:	74 d1                	je     40202f <urlencode+0x27>
  40205e:	3c 5f                	cmp    $0x5f,%al
  402060:	74 cd                	je     40202f <urlencode+0x27>
  402062:	8d 50 d0             	lea    -0x30(%rax),%edx
  402065:	80 fa 09             	cmp    $0x9,%dl
  402068:	76 c5                	jbe    40202f <urlencode+0x27>
  40206a:	8d 50 bf             	lea    -0x41(%rax),%edx
  40206d:	80 fa 19             	cmp    $0x19,%dl
  402070:	76 bd                	jbe    40202f <urlencode+0x27>
  402072:	8d 50 9f             	lea    -0x61(%rax),%edx
  402075:	80 fa 19             	cmp    $0x19,%dl
  402078:	76 b5                	jbe    40202f <urlencode+0x27>
  40207a:	3c 20                	cmp    $0x20,%al
  40207c:	74 4a                	je     4020c8 <urlencode+0xc0>
  40207e:	8d 50 e0             	lea    -0x20(%rax),%edx
  402081:	80 fa 5f             	cmp    $0x5f,%dl
  402084:	0f 96 c1             	setbe  %cl
  402087:	3c 09                	cmp    $0x9,%al
  402089:	0f 94 c2             	sete   %dl
  40208c:	08 d1                	or     %dl,%cl
  40208e:	74 45                	je     4020d5 <urlencode+0xcd>
  402090:	0f b6 d0             	movzbl %al,%edx
  402093:	be 85 34 40 00       	mov    $0x403485,%esi
  402098:	48 8d 7c 24 08       	lea    0x8(%rsp),%rdi
  40209d:	b8 00 00 00 00       	mov    $0x0,%eax
  4020a2:	e8 19 ee ff ff       	call   400ec0 <sprintf@plt>
  4020a7:	0f b6 44 24 08       	movzbl 0x8(%rsp),%eax
  4020ac:	88 45 00             	mov    %al,0x0(%rbp)
  4020af:	0f b6 44 24 09       	movzbl 0x9(%rsp),%eax
  4020b4:	88 45 01             	mov    %al,0x1(%rbp)
  4020b7:	0f b6 44 24 0a       	movzbl 0xa(%rsp),%eax
  4020bc:	88 45 02             	mov    %al,0x2(%rbp)
  4020bf:	48 8d 6d 03          	lea    0x3(%rbp),%rbp
  4020c3:	e9 6e ff ff ff       	jmp    402036 <urlencode+0x2e>
  4020c8:	c6 45 00 2b          	movb   $0x2b,0x0(%rbp)
  4020cc:	48 8d 6d 01          	lea    0x1(%rbp),%rbp
  4020d0:	e9 61 ff ff ff       	jmp    402036 <urlencode+0x2e>
  4020d5:	b8 ff ff ff ff       	mov    $0xffffffff,%eax
  4020da:	48 83 c4 10          	add    $0x10,%rsp
  4020de:	5b                   	pop    %rbx
  4020df:	5d                   	pop    %rbp
  4020e0:	41 5c                	pop    %r12
  4020e2:	c3                   	ret    

00000000004020e3 <rio_writen>:
  4020e3:	41 55                	push   %r13
  4020e5:	41 54                	push   %r12
  4020e7:	55                   	push   %rbp
  4020e8:	53                   	push   %rbx
  4020e9:	48 83 ec 08          	sub    $0x8,%rsp
  4020ed:	41 89 fc             	mov    %edi,%r12d
  4020f0:	48 89 f5             	mov    %rsi,%rbp
  4020f3:	49 89 d5             	mov    %rdx,%r13
  4020f6:	48 89 d3             	mov    %rdx,%rbx
  4020f9:	eb 06                	jmp    402101 <rio_writen+0x1e>
  4020fb:	48 29 c3             	sub    %rax,%rbx
  4020fe:	48 01 c5             	add    %rax,%rbp
  402101:	48 85 db             	test   %rbx,%rbx
  402104:	74 24                	je     40212a <rio_writen+0x47>
  402106:	48 89 da             	mov    %rbx,%rdx
  402109:	48 89 ee             	mov    %rbp,%rsi
  40210c:	44 89 e7             	mov    %r12d,%edi
  40210f:	e8 5c ec ff ff       	call   400d70 <write@plt>
  402114:	48 85 c0             	test   %rax,%rax
  402117:	7f e2                	jg     4020fb <rio_writen+0x18>
  402119:	e8 02 ec ff ff       	call   400d20 <__errno_location@plt>
  40211e:	83 38 04             	cmpl   $0x4,(%rax)
  402121:	75 15                	jne    402138 <rio_writen+0x55>
  402123:	b8 00 00 00 00       	mov    $0x0,%eax
  402128:	eb d1                	jmp    4020fb <rio_writen+0x18>
  40212a:	4c 89 e8             	mov    %r13,%rax
  40212d:	48 83 c4 08          	add    $0x8,%rsp
  402131:	5b                   	pop    %rbx
  402132:	5d                   	pop    %rbp
  402133:	41 5c                	pop    %r12
  402135:	41 5d                	pop    %r13
  402137:	c3                   	ret    
  402138:	48 c7 c0 ff ff ff ff 	mov    $0xffffffffffffffff,%rax
  40213f:	eb ec                	jmp    40212d <rio_writen+0x4a>

0000000000402141 <rio_read>:
  402141:	41 55                	push   %r13
  402143:	41 54                	push   %r12
  402145:	55                   	push   %rbp
  402146:	53                   	push   %rbx
  402147:	48 83 ec 08          	sub    $0x8,%rsp
  40214b:	48 89 fb             	mov    %rdi,%rbx
  40214e:	49 89 f5             	mov    %rsi,%r13
  402151:	49 89 d4             	mov    %rdx,%r12
  402154:	eb 0a                	jmp    402160 <rio_read+0x1f>
  402156:	e8 c5 eb ff ff       	call   400d20 <__errno_location@plt>
  40215b:	83 38 04             	cmpl   $0x4,(%rax)
  40215e:	75 5c                	jne    4021bc <rio_read+0x7b>
  402160:	8b 6b 04             	mov    0x4(%rbx),%ebp
  402163:	85 ed                	test   %ebp,%ebp
  402165:	7f 24                	jg     40218b <rio_read+0x4a>
  402167:	48 8d 6b 10          	lea    0x10(%rbx),%rbp
  40216b:	ba 00 20 00 00       	mov    $0x2000,%edx
  402170:	48 89 ee             	mov    %rbp,%rsi
  402173:	8b 3b                	mov    (%rbx),%edi
  402175:	e8 56 ec ff ff       	call   400dd0 <read@plt>
  40217a:	89 43 04             	mov    %eax,0x4(%rbx)
  40217d:	85 c0                	test   %eax,%eax
  40217f:	78 d5                	js     402156 <rio_read+0x15>
  402181:	85 c0                	test   %eax,%eax
  402183:	74 40                	je     4021c5 <rio_read+0x84>
  402185:	48 89 6b 08          	mov    %rbp,0x8(%rbx)
  402189:	eb d5                	jmp    402160 <rio_read+0x1f>
  40218b:	89 e8                	mov    %ebp,%eax
  40218d:	4c 39 e0             	cmp    %r12,%rax
  402190:	72 03                	jb     402195 <rio_read+0x54>
  402192:	44 89 e5             	mov    %r12d,%ebp
  402195:	4c 63 e5             	movslq %ebp,%r12
  402198:	48 8b 73 08          	mov    0x8(%rbx),%rsi
  40219c:	4c 89 e2             	mov    %r12,%rdx
  40219f:	4c 89 ef             	mov    %r13,%rdi
  4021a2:	e8 79 ec ff ff       	call   400e20 <memcpy@plt>
  4021a7:	4c 01 63 08          	add    %r12,0x8(%rbx)
  4021ab:	29 6b 04             	sub    %ebp,0x4(%rbx)
  4021ae:	4c 89 e0             	mov    %r12,%rax
  4021b1:	48 83 c4 08          	add    $0x8,%rsp
  4021b5:	5b                   	pop    %rbx
  4021b6:	5d                   	pop    %rbp
  4021b7:	41 5c                	pop    %r12
  4021b9:	41 5d                	pop    %r13
  4021bb:	c3                   	ret    
  4021bc:	48 c7 c0 ff ff ff ff 	mov    $0xffffffffffffffff,%rax
  4021c3:	eb ec                	jmp    4021b1 <rio_read+0x70>
  4021c5:	b8 00 00 00 00       	mov    $0x0,%eax
  4021ca:	eb e5                	jmp    4021b1 <rio_read+0x70>

00000000004021cc <rio_readlineb>:
  4021cc:	41 55                	push   %r13
  4021ce:	41 54                	push   %r12
  4021d0:	55                   	push   %rbp
  4021d1:	53                   	push   %rbx
  4021d2:	48 83 ec 18          	sub    $0x18,%rsp
  4021d6:	49 89 fd             	mov    %rdi,%r13
  4021d9:	48 89 f5             	mov    %rsi,%rbp
  4021dc:	49 89 d4             	mov    %rdx,%r12
  4021df:	bb 01 00 00 00       	mov    $0x1,%ebx
  4021e4:	4c 39 e3             	cmp    %r12,%rbx
  4021e7:	73 47                	jae    402230 <rio_readlineb+0x64>
  4021e9:	ba 01 00 00 00       	mov    $0x1,%edx
  4021ee:	48 8d 74 24 0f       	lea    0xf(%rsp),%rsi
  4021f3:	4c 89 ef             	mov    %r13,%rdi
  4021f6:	e8 46 ff ff ff       	call   402141 <rio_read>
  4021fb:	83 f8 01             	cmp    $0x1,%eax
  4021fe:	75 1c                	jne    40221c <rio_readlineb+0x50>
  402200:	48 8d 45 01          	lea    0x1(%rbp),%rax
  402204:	0f b6 54 24 0f       	movzbl 0xf(%rsp),%edx
  402209:	88 55 00             	mov    %dl,0x0(%rbp)
  40220c:	80 7c 24 0f 0a       	cmpb   $0xa,0xf(%rsp)
  402211:	74 1a                	je     40222d <rio_readlineb+0x61>
  402213:	48 83 c3 01          	add    $0x1,%rbx
  402217:	48 89 c5             	mov    %rax,%rbp
  40221a:	eb c8                	jmp    4021e4 <rio_readlineb+0x18>
  40221c:	85 c0                	test   %eax,%eax
  40221e:	75 22                	jne    402242 <rio_readlineb+0x76>
  402220:	48 83 fb 01          	cmp    $0x1,%rbx
  402224:	75 0a                	jne    402230 <rio_readlineb+0x64>
  402226:	b8 00 00 00 00       	mov    $0x0,%eax
  40222b:	eb 0a                	jmp    402237 <rio_readlineb+0x6b>
  40222d:	48 89 c5             	mov    %rax,%rbp
  402230:	c6 45 00 00          	movb   $0x0,0x0(%rbp)
  402234:	48 89 d8             	mov    %rbx,%rax
  402237:	48 83 c4 18          	add    $0x18,%rsp
  40223b:	5b                   	pop    %rbx
  40223c:	5d                   	pop    %rbp
  40223d:	41 5c                	pop    %r12
  40223f:	41 5d                	pop    %r13
  402241:	c3                   	ret    
  402242:	48 c7 c0 ff ff ff ff 	mov    $0xffffffffffffffff,%rax
  402249:	eb ec                	jmp    402237 <rio_readlineb+0x6b>

000000000040224b <submitr>:
  40224b:	41 57                	push   %r15
  40224d:	41 56                	push   %r14
  40224f:	41 55                	push   %r13
  402251:	41 54                	push   %r12
  402253:	55                   	push   %rbp
  402254:	53                   	push   %rbx
  402255:	48 81 ec 48 a0 00 00 	sub    $0xa048,%rsp
  40225c:	49 89 fc             	mov    %rdi,%r12
  40225f:	89 74 24 04          	mov    %esi,0x4(%rsp)
  402263:	49 89 d7             	mov    %rdx,%r15
  402266:	49 89 ce             	mov    %rcx,%r14
  402269:	4c 89 44 24 08       	mov    %r8,0x8(%rsp)
  40226e:	4d 89 cd             	mov    %r9,%r13
  402271:	48 8b ac 24 80 a0 00 	mov    0xa080(%rsp),%rbp
  402278:	00 
  402279:	c7 84 24 1c 20 00 00 	movl   $0x0,0x201c(%rsp)
  402280:	00 00 00 00 
  402284:	ba 00 00 00 00       	mov    $0x0,%edx
  402289:	be 01 00 00 00       	mov    $0x1,%esi
  40228e:	bf 02 00 00 00       	mov    $0x2,%edi
  402293:	e8 68 ec ff ff       	call   400f00 <socket@plt>
  402298:	85 c0                	test   %eax,%eax
  40229a:	0f 88 86 02 00 00    	js     402526 <submitr+0x2db>
  4022a0:	89 c3                	mov    %eax,%ebx
  4022a2:	4c 89 e7             	mov    %r12,%rdi
  4022a5:	e8 46 eb ff ff       	call   400df0 <gethostbyname@plt>
  4022aa:	48 85 c0             	test   %rax,%rax
  4022ad:	0f 84 bf 02 00 00    	je     402572 <submitr+0x327>
  4022b3:	48 c7 84 24 30 a0 00 	movq   $0x0,0xa030(%rsp)
  4022ba:	00 00 00 00 00 
  4022bf:	48 c7 84 24 38 a0 00 	movq   $0x0,0xa038(%rsp)
  4022c6:	00 00 00 00 00 
  4022cb:	66 c7 84 24 30 a0 00 	movw   $0x2,0xa030(%rsp)
  4022d2:	00 02 00 
  4022d5:	48 8b 48 18          	mov    0x18(%rax),%rcx
  4022d9:	48 63 50 14          	movslq 0x14(%rax),%rdx
  4022dd:	48 8d b4 24 34 a0 00 	lea    0xa034(%rsp),%rsi
  4022e4:	00 
  4022e5:	48 8b 39             	mov    (%rcx),%rdi
  4022e8:	e8 83 eb ff ff       	call   400e70 <bcopy@plt>
  4022ed:	0f b7 44 24 04       	movzwl 0x4(%rsp),%eax
  4022f2:	66 c1 c0 08          	rol    $0x8,%ax
  4022f6:	66 89 84 24 32 a0 00 	mov    %ax,0xa032(%rsp)
  4022fd:	00 
  4022fe:	ba 10 00 00 00       	mov    $0x10,%edx
  402303:	48 8d b4 24 30 a0 00 	lea    0xa030(%rsp),%rsi
  40230a:	00 
  40230b:	89 df                	mov    %ebx,%edi
  40230d:	e8 ce eb ff ff       	call   400ee0 <connect@plt>
  402312:	85 c0                	test   %eax,%eax
  402314:	0f 88 c0 02 00 00    	js     4025da <submitr+0x38f>
  40231a:	48 c7 c6 ff ff ff ff 	mov    $0xffffffffffffffff,%rsi
  402321:	b8 00 00 00 00       	mov    $0x0,%eax
  402326:	48 89 f1             	mov    %rsi,%rcx
  402329:	4c 89 ef             	mov    %r13,%rdi
  40232c:	f2 ae                	repnz scas %es:(%rdi),%al
  40232e:	48 89 ca             	mov    %rcx,%rdx
  402331:	48 f7 d2             	not    %rdx
  402334:	48 89 f1             	mov    %rsi,%rcx
  402337:	4c 89 ff             	mov    %r15,%rdi
  40233a:	f2 ae                	repnz scas %es:(%rdi),%al
  40233c:	48 f7 d1             	not    %rcx
  40233f:	49 89 c8             	mov    %rcx,%r8
  402342:	48 89 f1             	mov    %rsi,%rcx
  402345:	4c 89 f7             	mov    %r14,%rdi
  402348:	f2 ae                	repnz scas %es:(%rdi),%al
  40234a:	48 f7 d1             	not    %rcx
  40234d:	4d 8d 44 08 fe       	lea    -0x2(%r8,%rcx,1),%r8
  402352:	48 89 f1             	mov    %rsi,%rcx
  402355:	48 8b 7c 24 08       	mov    0x8(%rsp),%rdi
  40235a:	f2 ae                	repnz scas %es:(%rdi),%al
  40235c:	48 89 c8             	mov    %rcx,%rax
  40235f:	48 f7 d0             	not    %rax
  402362:	49 8d 4c 00 ff       	lea    -0x1(%r8,%rax,1),%rcx
  402367:	48 8d 44 52 fd       	lea    -0x3(%rdx,%rdx,2),%rax
  40236c:	48 8d 84 01 80 00 00 	lea    0x80(%rcx,%rax,1),%rax
  402373:	00 
  402374:	48 3d 00 20 00 00    	cmp    $0x2000,%rax
  40237a:	0f 87 b4 02 00 00    	ja     402634 <submitr+0x3e9>
  402380:	48 8d b4 24 20 40 00 	lea    0x4020(%rsp),%rsi
  402387:	00 
  402388:	b9 00 04 00 00       	mov    $0x400,%ecx
  40238d:	b8 00 00 00 00       	mov    $0x0,%eax
  402392:	48 89 f7             	mov    %rsi,%rdi
  402395:	f3 48 ab             	rep stos %rax,%es:(%rdi)
  402398:	4c 89 ef             	mov    %r13,%rdi
  40239b:	e8 68 fc ff ff       	call   402008 <urlencode>
  4023a0:	85 c0                	test   %eax,%eax
  4023a2:	0f 88 ff 02 00 00    	js     4026a7 <submitr+0x45c>
  4023a8:	4c 8d ac 24 20 60 00 	lea    0x6020(%rsp),%r13
  4023af:	00 
  4023b0:	4d 89 e1             	mov    %r12,%r9
  4023b3:	4c 8d 84 24 20 40 00 	lea    0x4020(%rsp),%r8
  4023ba:	00 
  4023bb:	4c 89 f9             	mov    %r15,%rcx
  4023be:	4c 89 f2             	mov    %r14,%rdx
  4023c1:	be 18 34 40 00       	mov    $0x403418,%esi
  4023c6:	4c 89 ef             	mov    %r13,%rdi
  4023c9:	b8 00 00 00 00       	mov    $0x0,%eax
  4023ce:	e8 ed ea ff ff       	call   400ec0 <sprintf@plt>
  4023d3:	48 c7 c1 ff ff ff ff 	mov    $0xffffffffffffffff,%rcx
  4023da:	b8 00 00 00 00       	mov    $0x0,%eax
  4023df:	4c 89 ef             	mov    %r13,%rdi
  4023e2:	f2 ae                	repnz scas %es:(%rdi),%al
  4023e4:	48 89 ca             	mov    %rcx,%rdx
  4023e7:	48 f7 d2             	not    %rdx
  4023ea:	48 8d 52 ff          	lea    -0x1(%rdx),%rdx
  4023ee:	4c 89 ee             	mov    %r13,%rsi
  4023f1:	89 df                	mov    %ebx,%edi
  4023f3:	e8 eb fc ff ff       	call   4020e3 <rio_writen>
  4023f8:	48 85 c0             	test   %rax,%rax
  4023fb:	0f 88 31 03 00 00    	js     402732 <submitr+0x4e7>
  402401:	89 de                	mov    %ebx,%esi
  402403:	48 8d bc 24 20 80 00 	lea    0x8020(%rsp),%rdi
  40240a:	00 
  40240b:	e8 bd fb ff ff       	call   401fcd <rio_readinitb>
  402410:	ba 00 20 00 00       	mov    $0x2000,%edx
  402415:	48 8d b4 24 20 60 00 	lea    0x6020(%rsp),%rsi
  40241c:	00 
  40241d:	48 8d bc 24 20 80 00 	lea    0x8020(%rsp),%rdi
  402424:	00 
  402425:	e8 a2 fd ff ff       	call   4021cc <rio_readlineb>
  40242a:	48 85 c0             	test   %rax,%rax
  40242d:	0f 8e 6e 03 00 00    	jle    4027a1 <submitr+0x556>
  402433:	4c 8d 44 24 10       	lea    0x10(%rsp),%r8
  402438:	48 8d 8c 24 1c 20 00 	lea    0x201c(%rsp),%rcx
  40243f:	00 
  402440:	48 8d 94 24 20 20 00 	lea    0x2020(%rsp),%rdx
  402447:	00 
  402448:	be 8c 34 40 00       	mov    $0x40348c,%esi
  40244d:	48 8d bc 24 20 60 00 	lea    0x6020(%rsp),%rdi
  402454:	00 
  402455:	b8 00 00 00 00       	mov    $0x0,%eax
  40245a:	e8 f1 e9 ff ff       	call   400e50 <__isoc99_sscanf@plt>
  40245f:	48 8d b4 24 20 60 00 	lea    0x6020(%rsp),%rsi
  402466:	00 
  402467:	bf a3 34 40 00       	mov    $0x4034a3,%edi
  40246c:	b9 03 00 00 00       	mov    $0x3,%ecx
  402471:	f3 a6                	repz cmpsb %es:(%rdi),%ds:(%rsi)
  402473:	0f 97 c0             	seta   %al
  402476:	1c 00                	sbb    $0x0,%al
  402478:	84 c0                	test   %al,%al
  40247a:	0f 84 9f 03 00 00    	je     40281f <submitr+0x5d4>
  402480:	ba 00 20 00 00       	mov    $0x2000,%edx
  402485:	48 8d b4 24 20 60 00 	lea    0x6020(%rsp),%rsi
  40248c:	00 
  40248d:	48 8d bc 24 20 80 00 	lea    0x8020(%rsp),%rdi
  402494:	00 
  402495:	e8 32 fd ff ff       	call   4021cc <rio_readlineb>
  40249a:	48 85 c0             	test   %rax,%rax
  40249d:	7f c0                	jg     40245f <submitr+0x214>
  40249f:	48 b8 45 72 72 6f 72 	movabs $0x43203a726f727245,%rax
  4024a6:	3a 20 43 
  4024a9:	48 ba 6c 69 65 6e 74 	movabs $0x6e7520746e65696c,%rdx
  4024b0:	20 75 6e 
  4024b3:	48 89 45 00          	mov    %rax,0x0(%rbp)
  4024b7:	48 89 55 08          	mov    %rdx,0x8(%rbp)
  4024bb:	48 b8 61 62 6c 65 20 	movabs $0x206f7420656c6261,%rax
  4024c2:	74 6f 20 
  4024c5:	48 ba 72 65 61 64 20 	movabs $0x6165682064616572,%rdx
  4024cc:	68 65 61 
  4024cf:	48 89 45 10          	mov    %rax,0x10(%rbp)
  4024d3:	48 89 55 18          	mov    %rdx,0x18(%rbp)
  4024d7:	48 b8 64 65 72 73 20 	movabs $0x6f72662073726564,%rax
  4024de:	66 72 6f 
  4024e1:	48 ba 6d 20 74 68 65 	movabs $0x657220656874206d,%rdx
  4024e8:	20 72 65 
  4024eb:	48 89 45 20          	mov    %rax,0x20(%rbp)
  4024ef:	48 89 55 28          	mov    %rdx,0x28(%rbp)
  4024f3:	48 b8 73 75 6c 74 20 	movabs $0x72657320746c7573,%rax
  4024fa:	73 65 72 
  4024fd:	48 89 45 30          	mov    %rax,0x30(%rbp)
  402501:	c7 45 38 76 65 72 00 	movl   $0x726576,0x38(%rbp)
  402508:	89 df                	mov    %ebx,%edi
  40250a:	e8 b1 e8 ff ff       	call   400dc0 <close@plt>
  40250f:	b8 ff ff ff ff       	mov    $0xffffffff,%eax
  402514:	48 81 c4 48 a0 00 00 	add    $0xa048,%rsp
  40251b:	5b                   	pop    %rbx
  40251c:	5d                   	pop    %rbp
  40251d:	41 5c                	pop    %r12
  40251f:	41 5d                	pop    %r13
  402521:	41 5e                	pop    %r14
  402523:	41 5f                	pop    %r15
  402525:	c3                   	ret    
  402526:	48 b8 45 72 72 6f 72 	movabs $0x43203a726f727245,%rax
  40252d:	3a 20 43 
  402530:	48 ba 6c 69 65 6e 74 	movabs $0x6e7520746e65696c,%rdx
  402537:	20 75 6e 
  40253a:	48 89 45 00          	mov    %rax,0x0(%rbp)
  40253e:	48 89 55 08          	mov    %rdx,0x8(%rbp)
  402542:	48 b8 61 62 6c 65 20 	movabs $0x206f7420656c6261,%rax
  402549:	74 6f 20 
  40254c:	48 ba 63 72 65 61 74 	movabs $0x7320657461657263,%rdx
  402553:	65 20 73 
  402556:	48 89 45 10          	mov    %rax,0x10(%rbp)
  40255a:	48 89 55 18          	mov    %rdx,0x18(%rbp)
  40255e:	c7 45 20 6f 63 6b 65 	movl   $0x656b636f,0x20(%rbp)
  402565:	66 c7 45 24 74 00    	movw   $0x74,0x24(%rbp)
  40256b:	b8 ff ff ff ff       	mov    $0xffffffff,%eax
  402570:	eb a2                	jmp    402514 <submitr+0x2c9>
  402572:	48 b8 45 72 72 6f 72 	movabs $0x44203a726f727245,%rax
  402579:	3a 20 44 
  40257c:	48 ba 4e 53 20 69 73 	movabs $0x6e7520736920534e,%rdx
  402583:	20 75 6e 
  402586:	48 89 45 00          	mov    %rax,0x0(%rbp)
  40258a:	48 89 55 08          	mov    %rdx,0x8(%rbp)
  40258e:	48 b8 61 62 6c 65 20 	movabs $0x206f7420656c6261,%rax
  402595:	74 6f 20 
  402598:	48 ba 72 65 73 6f 6c 	movabs $0x2065766c6f736572,%rdx
  40259f:	76 65 20 
  4025a2:	48 89 45 10          	mov    %rax,0x10(%rbp)
  4025a6:	48 89 55 18          	mov    %rdx,0x18(%rbp)
  4025aa:	48 b8 73 65 72 76 65 	movabs $0x6120726576726573,%rax
  4025b1:	72 20 61 
  4025b4:	48 89 45 20          	mov    %rax,0x20(%rbp)
  4025b8:	c7 45 28 64 64 72 65 	movl   $0x65726464,0x28(%rbp)
  4025bf:	66 c7 45 2c 73 73    	movw   $0x7373,0x2c(%rbp)
  4025c5:	c6 45 2e 00          	movb   $0x0,0x2e(%rbp)
  4025c9:	89 df                	mov    %ebx,%edi
  4025cb:	e8 f0 e7 ff ff       	call   400dc0 <close@plt>
  4025d0:	b8 ff ff ff ff       	mov    $0xffffffff,%eax
  4025d5:	e9 3a ff ff ff       	jmp    402514 <submitr+0x2c9>
  4025da:	48 b8 45 72 72 6f 72 	movabs $0x55203a726f727245,%rax
  4025e1:	3a 20 55 
  4025e4:	48 ba 6e 61 62 6c 65 	movabs $0x6f7420656c62616e,%rdx
  4025eb:	20 74 6f 
  4025ee:	48 89 45 00          	mov    %rax,0x0(%rbp)
  4025f2:	48 89 55 08          	mov    %rdx,0x8(%rbp)
  4025f6:	48 b8 20 63 6f 6e 6e 	movabs $0x7463656e6e6f6320,%rax
  4025fd:	65 63 74 
  402600:	48 ba 20 74 6f 20 74 	movabs $0x20656874206f7420,%rdx
  402607:	68 65 20 
  40260a:	48 89 45 10          	mov    %rax,0x10(%rbp)
  40260e:	48 89 55 18          	mov    %rdx,0x18(%rbp)
  402612:	c7 45 20 73 65 72 76 	movl   $0x76726573,0x20(%rbp)
  402619:	66 c7 45 24 65 72    	movw   $0x7265,0x24(%rbp)
  40261f:	c6 45 26 00          	movb   $0x0,0x26(%rbp)
  402623:	89 df                	mov    %ebx,%edi
  402625:	e8 96 e7 ff ff       	call   400dc0 <close@plt>
  40262a:	b8 ff ff ff ff       	mov    $0xffffffff,%eax
  40262f:	e9 e0 fe ff ff       	jmp    402514 <submitr+0x2c9>
  402634:	48 b8 45 72 72 6f 72 	movabs $0x52203a726f727245,%rax
  40263b:	3a 20 52 
  40263e:	48 ba 65 73 75 6c 74 	movabs $0x747320746c757365,%rdx
  402645:	20 73 74 
  402648:	48 89 45 00          	mov    %rax,0x0(%rbp)
  40264c:	48 89 55 08          	mov    %rdx,0x8(%rbp)
  402650:	48 b8 72 69 6e 67 20 	movabs $0x6f6f7420676e6972,%rax
  402657:	74 6f 6f 
  40265a:	48 ba 20 6c 61 72 67 	movabs $0x202e656772616c20,%rdx
  402661:	65 2e 20 
  402664:	48 89 45 10          	mov    %rax,0x10(%rbp)
  402668:	48 89 55 18          	mov    %rdx,0x18(%rbp)
  40266c:	48 b8 49 6e 63 72 65 	movabs $0x6573616572636e49,%rax
  402673:	61 73 65 
  402676:	48 ba 20 53 55 42 4d 	movabs $0x5254494d42555320,%rdx
  40267d:	49 54 52 
  402680:	48 89 45 20          	mov    %rax,0x20(%rbp)
  402684:	48 89 55 28          	mov    %rdx,0x28(%rbp)
  402688:	48 b8 5f 4d 41 58 42 	movabs $0x46554258414d5f,%rax
  40268f:	55 46 00 
  402692:	48 89 45 30          	mov    %rax,0x30(%rbp)
  402696:	89 df                	mov    %ebx,%edi
  402698:	e8 23 e7 ff ff       	call   400dc0 <close@plt>
  40269d:	b8 ff ff ff ff       	mov    $0xffffffff,%eax
  4026a2:	e9 6d fe ff ff       	jmp    402514 <submitr+0x2c9>
  4026a7:	48 b8 45 72 72 6f 72 	movabs $0x52203a726f727245,%rax
  4026ae:	3a 20 52 
  4026b1:	48 ba 65 73 75 6c 74 	movabs $0x747320746c757365,%rdx
  4026b8:	20 73 74 
  4026bb:	48 89 45 00          	mov    %rax,0x0(%rbp)
  4026bf:	48 89 55 08          	mov    %rdx,0x8(%rbp)
  4026c3:	48 b8 72 69 6e 67 20 	movabs $0x6e6f6320676e6972,%rax
  4026ca:	63 6f 6e 
  4026cd:	48 ba 74 61 69 6e 73 	movabs $0x6e6120736e696174,%rdx
  4026d4:	20 61 6e 
  4026d7:	48 89 45 10          	mov    %rax,0x10(%rbp)
  4026db:	48 89 55 18          	mov    %rdx,0x18(%rbp)
  4026df:	48 b8 20 69 6c 6c 65 	movabs $0x6c6167656c6c6920,%rax
  4026e6:	67 61 6c 
  4026e9:	48 ba 20 6f 72 20 75 	movabs $0x72706e7520726f20,%rdx
  4026f0:	6e 70 72 
  4026f3:	48 89 45 20          	mov    %rax,0x20(%rbp)
  4026f7:	48 89 55 28          	mov    %rdx,0x28(%rbp)
  4026fb:	48 b8 69 6e 74 61 62 	movabs $0x20656c6261746e69,%rax
  402702:	6c 65 20 
  402705:	48 ba 63 68 61 72 61 	movabs $0x6574636172616863,%rdx
  40270c:	63 74 65 
  40270f:	48 89 45 30          	mov    %rax,0x30(%rbp)
  402713:	48 89 55 38          	mov    %rdx,0x38(%rbp)
  402717:	66 c7 45 40 72 2e    	movw   $0x2e72,0x40(%rbp)
  40271d:	c6 45 42 00          	movb   $0x0,0x42(%rbp)
  402721:	89 df                	mov    %ebx,%edi
  402723:	e8 98 e6 ff ff       	call   400dc0 <close@plt>
  402728:	b8 ff ff ff ff       	mov    $0xffffffff,%eax
  40272d:	e9 e2 fd ff ff       	jmp    402514 <submitr+0x2c9>
  402732:	48 b8 45 72 72 6f 72 	movabs $0x43203a726f727245,%rax
  402739:	3a 20 43 
  40273c:	48 ba 6c 69 65 6e 74 	movabs $0x6e7520746e65696c,%rdx
  402743:	20 75 6e 
  402746:	48 89 45 00          	mov    %rax,0x0(%rbp)
  40274a:	48 89 55 08          	mov    %rdx,0x8(%rbp)
  40274e:	48 b8 61 62 6c 65 20 	movabs $0x206f7420656c6261,%rax
  402755:	74 6f 20 
  402758:	48 ba 77 72 69 74 65 	movabs $0x6f74206574697277,%rdx
  40275f:	20 74 6f 
  402762:	48 89 45 10          	mov    %rax,0x10(%rbp)
  402766:	48 89 55 18          	mov    %rdx,0x18(%rbp)
  40276a:	48 b8 20 74 68 65 20 	movabs $0x7365722065687420,%rax
  402771:	72 65 73 
  402774:	48 ba 75 6c 74 20 73 	movabs $0x7672657320746c75,%rdx
  40277b:	65 72 76 
  40277e:	48 89 45 20          	mov    %rax,0x20(%rbp)
  402782:	48 89 55 28          	mov    %rdx,0x28(%rbp)
  402786:	66 c7 45 30 65 72    	movw   $0x7265,0x30(%rbp)
  40278c:	c6 45 32 00          	movb   $0x0,0x32(%rbp)
  402790:	89 df                	mov    %ebx,%edi
  402792:	e8 29 e6 ff ff       	call   400dc0 <close@plt>
  402797:	b8 ff ff ff ff       	mov    $0xffffffff,%eax
  40279c:	e9 73 fd ff ff       	jmp    402514 <submitr+0x2c9>
  4027a1:	48 b8 45 72 72 6f 72 	movabs $0x43203a726f727245,%rax
  4027a8:	3a 20 43 
  4027ab:	48 ba 6c 69 65 6e 74 	movabs $0x6e7520746e65696c,%rdx
  4027b2:	20 75 6e 
  4027b5:	48 89 45 00          	mov    %rax,0x0(%rbp)
  4027b9:	48 89 55 08          	mov    %rdx,0x8(%rbp)
  4027bd:	48 b8 61 62 6c 65 20 	movabs $0x206f7420656c6261,%rax
  4027c4:	74 6f 20 
  4027c7:	48 ba 72 65 61 64 20 	movabs $0x7269662064616572,%rdx
  4027ce:	66 69 72 
  4027d1:	48 89 45 10          	mov    %rax,0x10(%rbp)
  4027d5:	48 89 55 18          	mov    %rdx,0x18(%rbp)
  4027d9:	48 b8 73 74 20 68 65 	movabs $0x6564616568207473,%rax
  4027e0:	61 64 65 
  4027e3:	48 ba 72 20 66 72 6f 	movabs $0x72206d6f72662072,%rdx
  4027ea:	6d 20 72 
  4027ed:	48 89 45 20          	mov    %rax,0x20(%rbp)
  4027f1:	48 89 55 28          	mov    %rdx,0x28(%rbp)
  4027f5:	48 b8 65 73 75 6c 74 	movabs $0x657320746c757365,%rax
  4027fc:	20 73 65 
  4027ff:	48 89 45 30          	mov    %rax,0x30(%rbp)
  402803:	c7 45 38 72 76 65 72 	movl   $0x72657672,0x38(%rbp)
  40280a:	c6 45 3c 00          	movb   $0x0,0x3c(%rbp)
  40280e:	89 df                	mov    %ebx,%edi
  402810:	e8 ab e5 ff ff       	call   400dc0 <close@plt>
  402815:	b8 ff ff ff ff       	mov    $0xffffffff,%eax
  40281a:	e9 f5 fc ff ff       	jmp    402514 <submitr+0x2c9>
  40281f:	ba 00 20 00 00       	mov    $0x2000,%edx
  402824:	48 8d b4 24 20 60 00 	lea    0x6020(%rsp),%rsi
  40282b:	00 
  40282c:	48 8d bc 24 20 80 00 	lea    0x8020(%rsp),%rdi
  402833:	00 
  402834:	e8 93 f9 ff ff       	call   4021cc <rio_readlineb>
  402839:	48 85 c0             	test   %rax,%rax
  40283c:	0f 8e 91 00 00 00    	jle    4028d3 <submitr+0x688>
  402842:	8b 94 24 1c 20 00 00 	mov    0x201c(%rsp),%edx
  402849:	81 fa c8 00 00 00    	cmp    $0xc8,%edx
  40284f:	0f 85 02 01 00 00    	jne    402957 <submitr+0x70c>
  402855:	48 8d b4 24 20 60 00 	lea    0x6020(%rsp),%rsi
  40285c:	00 
  40285d:	48 89 ef             	mov    %rbp,%rdi
  402860:	e8 eb e4 ff ff       	call   400d50 <strcpy@plt>
  402865:	89 df                	mov    %ebx,%edi
  402867:	e8 54 e5 ff ff       	call   400dc0 <close@plt>
  40286c:	bf 9d 34 40 00       	mov    $0x40349d,%edi
  402871:	b9 04 00 00 00       	mov    $0x4,%ecx
  402876:	48 89 ee             	mov    %rbp,%rsi
  402879:	f3 a6                	repz cmpsb %es:(%rdi),%ds:(%rsi)
  40287b:	0f 97 c0             	seta   %al
  40287e:	1c 00                	sbb    $0x0,%al
  402880:	0f be c0             	movsbl %al,%eax
  402883:	85 c0                	test   %eax,%eax
  402885:	0f 84 89 fc ff ff    	je     402514 <submitr+0x2c9>
  40288b:	bf a1 34 40 00       	mov    $0x4034a1,%edi
  402890:	b9 05 00 00 00       	mov    $0x5,%ecx
  402895:	48 89 ee             	mov    %rbp,%rsi
  402898:	f3 a6                	repz cmpsb %es:(%rdi),%ds:(%rsi)
  40289a:	0f 97 c0             	seta   %al
  40289d:	1c 00                	sbb    $0x0,%al
  40289f:	0f be c0             	movsbl %al,%eax
  4028a2:	85 c0                	test   %eax,%eax
  4028a4:	0f 84 6a fc ff ff    	je     402514 <submitr+0x2c9>
  4028aa:	bf a6 34 40 00       	mov    $0x4034a6,%edi
  4028af:	b9 03 00 00 00       	mov    $0x3,%ecx
  4028b4:	48 89 ee             	mov    %rbp,%rsi
  4028b7:	f3 a6                	repz cmpsb %es:(%rdi),%ds:(%rsi)
  4028b9:	0f 97 c0             	seta   %al
  4028bc:	1c 00                	sbb    $0x0,%al
  4028be:	0f be c0             	movsbl %al,%eax
  4028c1:	85 c0                	test   %eax,%eax
  4028c3:	0f 84 4b fc ff ff    	je     402514 <submitr+0x2c9>
  4028c9:	b8 ff ff ff ff       	mov    $0xffffffff,%eax
  4028ce:	e9 41 fc ff ff       	jmp    402514 <submitr+0x2c9>
  4028d3:	48 b8 45 72 72 6f 72 	movabs $0x43203a726f727245,%rax
  4028da:	3a 20 43 
  4028dd:	48 ba 6c 69 65 6e 74 	movabs $0x6e7520746e65696c,%rdx
  4028e4:	20 75 6e 
  4028e7:	48 89 45 00          	mov    %rax,0x0(%rbp)
  4028eb:	48 89 55 08          	mov    %rdx,0x8(%rbp)
  4028ef:	48 b8 61 62 6c 65 20 	movabs $0x206f7420656c6261,%rax
  4028f6:	74 6f 20 
  4028f9:	48 ba 72 65 61 64 20 	movabs $0x6174732064616572,%rdx
  402900:	73 74 61 
  402903:	48 89 45 10          	mov    %rax,0x10(%rbp)
  402907:	48 89 55 18          	mov    %rdx,0x18(%rbp)
  40290b:	48 b8 74 75 73 20 6d 	movabs $0x7373656d20737574,%rax
  402912:	65 73 73 
  402915:	48 ba 61 67 65 20 66 	movabs $0x6d6f726620656761,%rdx
  40291c:	72 6f 6d 
  40291f:	48 89 45 20          	mov    %rax,0x20(%rbp)
  402923:	48 89 55 28          	mov    %rdx,0x28(%rbp)
  402927:	48 b8 20 72 65 73 75 	movabs $0x20746c7573657220,%rax
  40292e:	6c 74 20 
  402931:	48 89 45 30          	mov    %rax,0x30(%rbp)
  402935:	c7 45 38 73 65 72 76 	movl   $0x76726573,0x38(%rbp)
  40293c:	66 c7 45 3c 65 72    	movw   $0x7265,0x3c(%rbp)
  402942:	c6 45 3e 00          	movb   $0x0,0x3e(%rbp)
  402946:	89 df                	mov    %ebx,%edi
  402948:	e8 73 e4 ff ff       	call   400dc0 <close@plt>
  40294d:	b8 ff ff ff ff       	mov    $0xffffffff,%eax
  402952:	e9 bd fb ff ff       	jmp    402514 <submitr+0x2c9>
  402957:	48 8d 4c 24 10       	lea    0x10(%rsp),%rcx
  40295c:	be 58 34 40 00       	mov    $0x403458,%esi
  402961:	48 89 ef             	mov    %rbp,%rdi
  402964:	b8 00 00 00 00       	mov    $0x0,%eax
  402969:	e8 52 e5 ff ff       	call   400ec0 <sprintf@plt>
  40296e:	89 df                	mov    %ebx,%edi
  402970:	e8 4b e4 ff ff       	call   400dc0 <close@plt>
  402975:	b8 ff ff ff ff       	mov    $0xffffffff,%eax
  40297a:	e9 95 fb ff ff       	jmp    402514 <submitr+0x2c9>

000000000040297f <init_timeout>:
  40297f:	85 ff                	test   %edi,%edi
  402981:	74 26                	je     4029a9 <init_timeout+0x2a>
  402983:	53                   	push   %rbx
  402984:	89 fb                	mov    %edi,%ebx
  402986:	85 ff                	test   %edi,%edi
  402988:	78 18                	js     4029a2 <init_timeout+0x23>
  40298a:	be df 1f 40 00       	mov    $0x401fdf,%esi
  40298f:	bf 0e 00 00 00       	mov    $0xe,%edi
  402994:	e8 47 e4 ff ff       	call   400de0 <signal@plt>
  402999:	89 df                	mov    %ebx,%edi
  40299b:	e8 10 e4 ff ff       	call   400db0 <alarm@plt>
  4029a0:	5b                   	pop    %rbx
  4029a1:	c3                   	ret    
  4029a2:	bb 00 00 00 00       	mov    $0x0,%ebx
  4029a7:	eb e1                	jmp    40298a <init_timeout+0xb>
  4029a9:	f3 c3                	repz ret 

00000000004029ab <init_driver>:
  4029ab:	55                   	push   %rbp
  4029ac:	53                   	push   %rbx
  4029ad:	48 83 ec 18          	sub    $0x18,%rsp
  4029b1:	48 89 fd             	mov    %rdi,%rbp
  4029b4:	be 01 00 00 00       	mov    $0x1,%esi
  4029b9:	bf 0d 00 00 00       	mov    $0xd,%edi
  4029be:	e8 1d e4 ff ff       	call   400de0 <signal@plt>
  4029c3:	be 01 00 00 00       	mov    $0x1,%esi
  4029c8:	bf 1d 00 00 00       	mov    $0x1d,%edi
  4029cd:	e8 0e e4 ff ff       	call   400de0 <signal@plt>
  4029d2:	be 01 00 00 00       	mov    $0x1,%esi
  4029d7:	bf 1d 00 00 00       	mov    $0x1d,%edi
  4029dc:	e8 ff e3 ff ff       	call   400de0 <signal@plt>
  4029e1:	ba 00 00 00 00       	mov    $0x0,%edx
  4029e6:	be 01 00 00 00       	mov    $0x1,%esi
  4029eb:	bf 02 00 00 00       	mov    $0x2,%edi
  4029f0:	e8 0b e5 ff ff       	call   400f00 <socket@plt>
  4029f5:	85 c0                	test   %eax,%eax
  4029f7:	78 7c                	js     402a75 <init_driver+0xca>
  4029f9:	89 c3                	mov    %eax,%ebx
  4029fb:	bf a9 34 40 00       	mov    $0x4034a9,%edi
  402a00:	e8 eb e3 ff ff       	call   400df0 <gethostbyname@plt>
  402a05:	48 85 c0             	test   %rax,%rax
  402a08:	0f 84 b3 00 00 00    	je     402ac1 <init_driver+0x116>
  402a0e:	48 c7 04 24 00 00 00 	movq   $0x0,(%rsp)
  402a15:	00 
  402a16:	48 c7 44 24 08 00 00 	movq   $0x0,0x8(%rsp)
  402a1d:	00 00 
  402a1f:	66 c7 04 24 02 00    	movw   $0x2,(%rsp)
  402a25:	48 8b 48 18          	mov    0x18(%rax),%rcx
  402a29:	48 63 50 14          	movslq 0x14(%rax),%rdx
  402a2d:	48 8d 74 24 04       	lea    0x4(%rsp),%rsi
  402a32:	48 8b 39             	mov    (%rcx),%rdi
  402a35:	e8 36 e4 ff ff       	call   400e70 <bcopy@plt>
  402a3a:	66 c7 44 24 02 3c 9a 	movw   $0x9a3c,0x2(%rsp)
  402a41:	ba 10 00 00 00       	mov    $0x10,%edx
  402a46:	48 89 e6             	mov    %rsp,%rsi
  402a49:	89 df                	mov    %ebx,%edi
  402a4b:	e8 90 e4 ff ff       	call   400ee0 <connect@plt>
  402a50:	85 c0                	test   %eax,%eax
  402a52:	0f 88 d1 00 00 00    	js     402b29 <init_driver+0x17e>
  402a58:	89 df                	mov    %ebx,%edi
  402a5a:	e8 61 e3 ff ff       	call   400dc0 <close@plt>
  402a5f:	66 c7 45 00 4f 4b    	movw   $0x4b4f,0x0(%rbp)
  402a65:	c6 45 02 00          	movb   $0x0,0x2(%rbp)
  402a69:	b8 00 00 00 00       	mov    $0x0,%eax
  402a6e:	48 83 c4 18          	add    $0x18,%rsp
  402a72:	5b                   	pop    %rbx
  402a73:	5d                   	pop    %rbp
  402a74:	c3                   	ret    
  402a75:	48 b8 45 72 72 6f 72 	movabs $0x43203a726f727245,%rax
  402a7c:	3a 20 43 
  402a7f:	48 ba 6c 69 65 6e 74 	movabs $0x6e7520746e65696c,%rdx
  402a86:	20 75 6e 
  402a89:	48 89 45 00          	mov    %rax,0x0(%rbp)
  402a8d:	48 89 55 08          	mov    %rdx,0x8(%rbp)
  402a91:	48 b8 61 62 6c 65 20 	movabs $0x206f7420656c6261,%rax
  402a98:	74 6f 20 
  402a9b:	48 ba 63 72 65 61 74 	movabs $0x7320657461657263,%rdx
  402aa2:	65 20 73 
  402aa5:	48 89 45 10          	mov    %rax,0x10(%rbp)
  402aa9:	48 89 55 18          	mov    %rdx,0x18(%rbp)
  402aad:	c7 45 20 6f 63 6b 65 	movl   $0x656b636f,0x20(%rbp)
  402ab4:	66 c7 45 24 74 00    	movw   $0x74,0x24(%rbp)
  402aba:	b8 ff ff ff ff       	mov    $0xffffffff,%eax
  402abf:	eb ad                	jmp    402a6e <init_driver+0xc3>
  402ac1:	48 b8 45 72 72 6f 72 	movabs $0x44203a726f727245,%rax
  402ac8:	3a 20 44 
  402acb:	48 ba 4e 53 20 69 73 	movabs $0x6e7520736920534e,%rdx
  402ad2:	20 75 6e 
  402ad5:	48 89 45 00          	mov    %rax,0x0(%rbp)
  402ad9:	48 89 55 08          	mov    %rdx,0x8(%rbp)
  402add:	48 b8 61 62 6c 65 20 	movabs $0x206f7420656c6261,%rax
  402ae4:	74 6f 20 
  402ae7:	48 ba 72 65 73 6f 6c 	movabs $0x2065766c6f736572,%rdx
  402aee:	76 65 20 
  402af1:	48 89 45 10          	mov    %rax,0x10(%rbp)
  402af5:	48 89 55 18          	mov    %rdx,0x18(%rbp)
  402af9:	48 b8 73 65 72 76 65 	movabs $0x6120726576726573,%rax
  402b00:	72 20 61 
  402b03:	48 89 45 20          	mov    %rax,0x20(%rbp)
  402b07:	c7 45 28 64 64 72 65 	movl   $0x65726464,0x28(%rbp)
  402b0e:	66 c7 45 2c 73 73    	movw   $0x7373,0x2c(%rbp)
  402b14:	c6 45 2e 00          	movb   $0x0,0x2e(%rbp)
  402b18:	89 df                	mov    %ebx,%edi
  402b1a:	e8 a1 e2 ff ff       	call   400dc0 <close@plt>
  402b1f:	b8 ff ff ff ff       	mov    $0xffffffff,%eax
  402b24:	e9 45 ff ff ff       	jmp    402a6e <init_driver+0xc3>
  402b29:	48 b8 45 72 72 6f 72 	movabs $0x55203a726f727245,%rax
  402b30:	3a 20 55 
  402b33:	48 ba 6e 61 62 6c 65 	movabs $0x6f7420656c62616e,%rdx
  402b3a:	20 74 6f 
  402b3d:	48 89 45 00          	mov    %rax,0x0(%rbp)
  402b41:	48 89 55 08          	mov    %rdx,0x8(%rbp)
  402b45:	48 b8 20 63 6f 6e 6e 	movabs $0x7463656e6e6f6320,%rax
  402b4c:	65 63 74 
  402b4f:	48 ba 20 74 6f 20 73 	movabs $0x76726573206f7420,%rdx
  402b56:	65 72 76 
  402b59:	48 89 45 10          	mov    %rax,0x10(%rbp)
  402b5d:	48 89 55 18          	mov    %rdx,0x18(%rbp)
  402b61:	66 c7 45 20 65 72    	movw   $0x7265,0x20(%rbp)
  402b67:	c6 45 22 00          	movb   $0x0,0x22(%rbp)
  402b6b:	89 df                	mov    %ebx,%edi
  402b6d:	e8 4e e2 ff ff       	call   400dc0 <close@plt>
  402b72:	b8 ff ff ff ff       	mov    $0xffffffff,%eax
  402b77:	e9 f2 fe ff ff       	jmp    402a6e <init_driver+0xc3>

0000000000402b7c <driver_post>:
  402b7c:	53                   	push   %rbx
  402b7d:	4c 89 cb             	mov    %r9,%rbx
  402b80:	45 85 c0             	test   %r8d,%r8d
  402b83:	75 18                	jne    402b9d <driver_post+0x21>
  402b85:	48 85 ff             	test   %rdi,%rdi
  402b88:	74 05                	je     402b8f <driver_post+0x13>
  402b8a:	80 3f 00             	cmpb   $0x0,(%rdi)
  402b8d:	75 30                	jne    402bbf <driver_post+0x43>
  402b8f:	66 c7 03 4f 4b       	movw   $0x4b4f,(%rbx)
  402b94:	c6 43 02 00          	movb   $0x0,0x2(%rbx)
  402b98:	44 89 c0             	mov    %r8d,%eax
  402b9b:	5b                   	pop    %rbx
  402b9c:	c3                   	ret    
  402b9d:	48 89 ce             	mov    %rcx,%rsi
  402ba0:	bf b6 34 40 00       	mov    $0x4034b6,%edi
  402ba5:	b8 00 00 00 00       	mov    $0x0,%eax
  402baa:	e8 e1 e1 ff ff       	call   400d90 <printf@plt>
  402baf:	66 c7 03 4f 4b       	movw   $0x4b4f,(%rbx)
  402bb4:	c6 43 02 00          	movb   $0x0,0x2(%rbx)
  402bb8:	b8 00 00 00 00       	mov    $0x0,%eax
  402bbd:	eb dc                	jmp    402b9b <driver_post+0x1f>
  402bbf:	48 83 ec 08          	sub    $0x8,%rsp
  402bc3:	41 51                	push   %r9
  402bc5:	49 89 c9             	mov    %rcx,%r9
  402bc8:	49 89 d0             	mov    %rdx,%r8
  402bcb:	48 89 f9             	mov    %rdi,%rcx
  402bce:	48 89 f2             	mov    %rsi,%rdx
  402bd1:	be 9a 3c 00 00       	mov    $0x3c9a,%esi
  402bd6:	bf a9 34 40 00       	mov    $0x4034a9,%edi
  402bdb:	e8 6b f6 ff ff       	call   40224b <submitr>
  402be0:	48 83 c4 10          	add    $0x10,%rsp
  402be4:	eb b5                	jmp    402b9b <driver_post+0x1f>

0000000000402be6 <check>:
  402be6:	89 f8                	mov    %edi,%eax
  402be8:	c1 e8 1c             	shr    $0x1c,%eax
  402beb:	85 c0                	test   %eax,%eax
  402bed:	74 1d                	je     402c0c <check+0x26>
  402bef:	b9 00 00 00 00       	mov    $0x0,%ecx
  402bf4:	83 f9 1f             	cmp    $0x1f,%ecx
  402bf7:	7f 0d                	jg     402c06 <check+0x20>
  402bf9:	89 f8                	mov    %edi,%eax
  402bfb:	d3 e8                	shr    %cl,%eax
  402bfd:	3c 0a                	cmp    $0xa,%al
  402bff:	74 11                	je     402c12 <check+0x2c>
  402c01:	83 c1 08             	add    $0x8,%ecx
  402c04:	eb ee                	jmp    402bf4 <check+0xe>
  402c06:	b8 01 00 00 00       	mov    $0x1,%eax
  402c0b:	c3                   	ret    
  402c0c:	b8 00 00 00 00       	mov    $0x0,%eax
  402c11:	c3                   	ret    
  402c12:	b8 00 00 00 00       	mov    $0x0,%eax
  402c17:	c3                   	ret    

0000000000402c18 <gencookie>:
  402c18:	53                   	push   %rbx
  402c19:	83 c7 01             	add    $0x1,%edi
  402c1c:	e8 0f e1 ff ff       	call   400d30 <srandom@plt>
  402c21:	e8 1a e2 ff ff       	call   400e40 <random@plt>
  402c26:	89 c3                	mov    %eax,%ebx
  402c28:	89 c7                	mov    %eax,%edi
  402c2a:	e8 b7 ff ff ff       	call   402be6 <check>
  402c2f:	85 c0                	test   %eax,%eax
  402c31:	74 ee                	je     402c21 <gencookie+0x9>
  402c33:	89 d8                	mov    %ebx,%eax
  402c35:	5b                   	pop    %rbx
  402c36:	c3                   	ret    
  402c37:	66 0f 1f 84 00 00 00 	nopw   0x0(%rax,%rax,1)
  402c3e:	00 00 
  402c40:	90                   	nop
  402c41:	90                   	nop
  402c42:	90                   	nop
  402c43:	90                   	nop
  402c44:	90                   	nop
  402c45:	90                   	nop
  402c46:	90                   	nop
  402c47:	90                   	nop
  402c48:	90                   	nop
  402c49:	90                   	nop
  402c4a:	90                   	nop
  402c4b:	90                   	nop
  402c4c:	90                   	nop
  402c4d:	90                   	nop

0000000000402c4e <__libc_csu_init>:
  402c4e:	90                   	nop
  402c4f:	90                   	nop
  402c50:	41 57                	push   %r15
  402c52:	41 56                	push   %r14
  402c54:	49 89 d7             	mov    %rdx,%r15
  402c57:	41 55                	push   %r13
  402c59:	41 54                	push   %r12
  402c5b:	4c 8d 25 9e 11 20 00 	lea    0x20119e(%rip),%r12        # 603e00 <__frame_dummy_init_array_entry>
  402c62:	55                   	push   %rbp
  402c63:	48 8d 2d 9e 11 20 00 	lea    0x20119e(%rip),%rbp        # 603e08 <__do_global_dtors_aux_fini_array_entry>
  402c6a:	53                   	push   %rbx
  402c6b:	41 89 fd             	mov    %edi,%r13d
  402c6e:	49 89 f6             	mov    %rsi,%r14
  402c71:	4c 29 e5             	sub    %r12,%rbp
  402c74:	48 83 ec 08          	sub    $0x8,%rsp
  402c78:	48 c1 fd 03          	sar    $0x3,%rbp
  402c7c:	e8 5f e0 ff ff       	call   400ce0 <_init>
  402c81:	48 85 ed             	test   %rbp,%rbp
  402c84:	74 20                	je     402ca6 <__libc_csu_init+0x58>
  402c86:	31 db                	xor    %ebx,%ebx
  402c88:	0f 1f 84 00 00 00 00 	nopl   0x0(%rax,%rax,1)
  402c8f:	00 
  402c90:	4c 89 fa             	mov    %r15,%rdx
  402c93:	4c 89 f6             	mov    %r14,%rsi
  402c96:	44 89 ef             	mov    %r13d,%edi
  402c99:	41 ff 14 dc          	call   *(%r12,%rbx,8)
  402c9d:	48 83 c3 01          	add    $0x1,%rbx
  402ca1:	48 39 dd             	cmp    %rbx,%rbp
  402ca4:	75 ea                	jne    402c90 <__libc_csu_init+0x42>
  402ca6:	48 83 c4 08          	add    $0x8,%rsp
  402caa:	5b                   	pop    %rbx
  402cab:	5d                   	pop    %rbp
  402cac:	41 5c                	pop    %r12
  402cae:	41 5d                	pop    %r13
  402cb0:	41 5e                	pop    %r14
  402cb2:	41 5f                	pop    %r15
  402cb4:	c3                   	ret    
  402cb5:	66 66 2e 0f 1f 84 00 	data16 cs nopw 0x0(%rax,%rax,1)
  402cbc:	00 00 00 00 
  402cc0:	90                   	nop
  402cc1:	90                   	nop
  402cc2:	90                   	nop
  402cc3:	90                   	nop
  402cc4:	90                   	nop
  402cc5:	90                   	nop
  402cc6:	90                   	nop
  402cc7:	90                   	nop
  402cc8:	90                   	nop
  402cc9:	90                   	nop
  402cca:	90                   	nop
  402ccb:	90                   	nop
  402ccc:	90                   	nop
  402ccd:	90                   	nop

0000000000402cce <__libc_csu_fini>:
  402cce:	90                   	nop
  402ccf:	90                   	nop
  402cd0:	f3 c3                	repz ret 

Disassembly of section .fini:

0000000000402cd4 <_fini>:
  402cd4:	48 83 ec 08          	sub    $0x8,%rsp
  402cd8:	48 83 c4 08          	add    $0x8,%rsp
  402cdc:	c3                   	ret    
