
rtarget:     file format elf64-x86-64


Disassembly of section .init:

0000000000400ce0 <_init>:
  400ce0:	48 83 ec 08          	sub    $0x8,%rsp
  400ce4:	48 8b 05 0d 43 20 00 	mov    0x20430d(%rip),%rax        # 604ff8 <__gmon_start__@Base>
  400ceb:	48 85 c0             	test   %rax,%rax
  400cee:	74 02                	je     400cf2 <_init+0x12>
  400cf0:	ff d0                	call   *%rax
  400cf2:	48 83 c4 08          	add    $0x8,%rsp
  400cf6:	c3                   	ret    

Disassembly of section .plt:

0000000000400d00 <strcasecmp@plt-0x10>:
  400d00:	ff 35 02 43 20 00    	push   0x204302(%rip)        # 605008 <_GLOBAL_OFFSET_TABLE_+0x8>
  400d06:	ff 25 04 43 20 00    	jmp    *0x204304(%rip)        # 605010 <_GLOBAL_OFFSET_TABLE_+0x10>
  400d0c:	0f 1f 40 00          	nopl   0x0(%rax)

0000000000400d10 <strcasecmp@plt>:
  400d10:	ff 25 02 43 20 00    	jmp    *0x204302(%rip)        # 605018 <strcasecmp@GLIBC_2.2.5>
  400d16:	68 00 00 00 00       	push   $0x0
  400d1b:	e9 e0 ff ff ff       	jmp    400d00 <_init+0x20>

0000000000400d20 <__errno_location@plt>:
  400d20:	ff 25 fa 42 20 00    	jmp    *0x2042fa(%rip)        # 605020 <__errno_location@GLIBC_2.2.5>
  400d26:	68 01 00 00 00       	push   $0x1
  400d2b:	e9 d0 ff ff ff       	jmp    400d00 <_init+0x20>

0000000000400d30 <srandom@plt>:
  400d30:	ff 25 f2 42 20 00    	jmp    *0x2042f2(%rip)        # 605028 <srandom@GLIBC_2.2.5>
  400d36:	68 02 00 00 00       	push   $0x2
  400d3b:	e9 c0 ff ff ff       	jmp    400d00 <_init+0x20>

0000000000400d40 <strncmp@plt>:
  400d40:	ff 25 ea 42 20 00    	jmp    *0x2042ea(%rip)        # 605030 <strncmp@GLIBC_2.2.5>
  400d46:	68 03 00 00 00       	push   $0x3
  400d4b:	e9 b0 ff ff ff       	jmp    400d00 <_init+0x20>

0000000000400d50 <strcpy@plt>:
  400d50:	ff 25 e2 42 20 00    	jmp    *0x2042e2(%rip)        # 605038 <strcpy@GLIBC_2.2.5>
  400d56:	68 04 00 00 00       	push   $0x4
  400d5b:	e9 a0 ff ff ff       	jmp    400d00 <_init+0x20>

0000000000400d60 <puts@plt>:
  400d60:	ff 25 da 42 20 00    	jmp    *0x2042da(%rip)        # 605040 <puts@GLIBC_2.2.5>
  400d66:	68 05 00 00 00       	push   $0x5
  400d6b:	e9 90 ff ff ff       	jmp    400d00 <_init+0x20>

0000000000400d70 <write@plt>:
  400d70:	ff 25 d2 42 20 00    	jmp    *0x2042d2(%rip)        # 605048 <write@GLIBC_2.2.5>
  400d76:	68 06 00 00 00       	push   $0x6
  400d7b:	e9 80 ff ff ff       	jmp    400d00 <_init+0x20>

0000000000400d80 <mmap@plt>:
  400d80:	ff 25 ca 42 20 00    	jmp    *0x2042ca(%rip)        # 605050 <mmap@GLIBC_2.2.5>
  400d86:	68 07 00 00 00       	push   $0x7
  400d8b:	e9 70 ff ff ff       	jmp    400d00 <_init+0x20>

0000000000400d90 <printf@plt>:
  400d90:	ff 25 c2 42 20 00    	jmp    *0x2042c2(%rip)        # 605058 <printf@GLIBC_2.2.5>
  400d96:	68 08 00 00 00       	push   $0x8
  400d9b:	e9 60 ff ff ff       	jmp    400d00 <_init+0x20>

0000000000400da0 <memset@plt>:
  400da0:	ff 25 ba 42 20 00    	jmp    *0x2042ba(%rip)        # 605060 <memset@GLIBC_2.2.5>
  400da6:	68 09 00 00 00       	push   $0x9
  400dab:	e9 50 ff ff ff       	jmp    400d00 <_init+0x20>

0000000000400db0 <alarm@plt>:
  400db0:	ff 25 b2 42 20 00    	jmp    *0x2042b2(%rip)        # 605068 <alarm@GLIBC_2.2.5>
  400db6:	68 0a 00 00 00       	push   $0xa
  400dbb:	e9 40 ff ff ff       	jmp    400d00 <_init+0x20>

0000000000400dc0 <close@plt>:
  400dc0:	ff 25 aa 42 20 00    	jmp    *0x2042aa(%rip)        # 605070 <close@GLIBC_2.2.5>
  400dc6:	68 0b 00 00 00       	push   $0xb
  400dcb:	e9 30 ff ff ff       	jmp    400d00 <_init+0x20>

0000000000400dd0 <read@plt>:
  400dd0:	ff 25 a2 42 20 00    	jmp    *0x2042a2(%rip)        # 605078 <read@GLIBC_2.2.5>
  400dd6:	68 0c 00 00 00       	push   $0xc
  400ddb:	e9 20 ff ff ff       	jmp    400d00 <_init+0x20>

0000000000400de0 <signal@plt>:
  400de0:	ff 25 9a 42 20 00    	jmp    *0x20429a(%rip)        # 605080 <signal@GLIBC_2.2.5>
  400de6:	68 0d 00 00 00       	push   $0xd
  400deb:	e9 10 ff ff ff       	jmp    400d00 <_init+0x20>

0000000000400df0 <gethostbyname@plt>:
  400df0:	ff 25 92 42 20 00    	jmp    *0x204292(%rip)        # 605088 <gethostbyname@GLIBC_2.2.5>
  400df6:	68 0e 00 00 00       	push   $0xe
  400dfb:	e9 00 ff ff ff       	jmp    400d00 <_init+0x20>

0000000000400e00 <fprintf@plt>:
  400e00:	ff 25 8a 42 20 00    	jmp    *0x20428a(%rip)        # 605090 <fprintf@GLIBC_2.2.5>
  400e06:	68 0f 00 00 00       	push   $0xf
  400e0b:	e9 f0 fe ff ff       	jmp    400d00 <_init+0x20>

0000000000400e10 <strtol@plt>:
  400e10:	ff 25 82 42 20 00    	jmp    *0x204282(%rip)        # 605098 <strtol@GLIBC_2.2.5>
  400e16:	68 10 00 00 00       	push   $0x10
  400e1b:	e9 e0 fe ff ff       	jmp    400d00 <_init+0x20>

0000000000400e20 <memcpy@plt>:
  400e20:	ff 25 7a 42 20 00    	jmp    *0x20427a(%rip)        # 6050a0 <memcpy@GLIBC_2.14>
  400e26:	68 11 00 00 00       	push   $0x11
  400e2b:	e9 d0 fe ff ff       	jmp    400d00 <_init+0x20>

0000000000400e30 <time@plt>:
  400e30:	ff 25 72 42 20 00    	jmp    *0x204272(%rip)        # 6050a8 <time@GLIBC_2.2.5>
  400e36:	68 12 00 00 00       	push   $0x12
  400e3b:	e9 c0 fe ff ff       	jmp    400d00 <_init+0x20>

0000000000400e40 <random@plt>:
  400e40:	ff 25 6a 42 20 00    	jmp    *0x20426a(%rip)        # 6050b0 <random@GLIBC_2.2.5>
  400e46:	68 13 00 00 00       	push   $0x13
  400e4b:	e9 b0 fe ff ff       	jmp    400d00 <_init+0x20>

0000000000400e50 <__isoc99_sscanf@plt>:
  400e50:	ff 25 62 42 20 00    	jmp    *0x204262(%rip)        # 6050b8 <__isoc99_sscanf@GLIBC_2.7>
  400e56:	68 14 00 00 00       	push   $0x14
  400e5b:	e9 a0 fe ff ff       	jmp    400d00 <_init+0x20>

0000000000400e60 <munmap@plt>:
  400e60:	ff 25 5a 42 20 00    	jmp    *0x20425a(%rip)        # 6050c0 <munmap@GLIBC_2.2.5>
  400e66:	68 15 00 00 00       	push   $0x15
  400e6b:	e9 90 fe ff ff       	jmp    400d00 <_init+0x20>

0000000000400e70 <bcopy@plt>:
  400e70:	ff 25 52 42 20 00    	jmp    *0x204252(%rip)        # 6050c8 <bcopy@GLIBC_2.2.5>
  400e76:	68 16 00 00 00       	push   $0x16
  400e7b:	e9 80 fe ff ff       	jmp    400d00 <_init+0x20>

0000000000400e80 <fopen@plt>:
  400e80:	ff 25 4a 42 20 00    	jmp    *0x20424a(%rip)        # 6050d0 <fopen@GLIBC_2.2.5>
  400e86:	68 17 00 00 00       	push   $0x17
  400e8b:	e9 70 fe ff ff       	jmp    400d00 <_init+0x20>

0000000000400e90 <getopt@plt>:
  400e90:	ff 25 42 42 20 00    	jmp    *0x204242(%rip)        # 6050d8 <getopt@GLIBC_2.2.5>
  400e96:	68 18 00 00 00       	push   $0x18
  400e9b:	e9 60 fe ff ff       	jmp    400d00 <_init+0x20>

0000000000400ea0 <strtoul@plt>:
  400ea0:	ff 25 3a 42 20 00    	jmp    *0x20423a(%rip)        # 6050e0 <strtoul@GLIBC_2.2.5>
  400ea6:	68 19 00 00 00       	push   $0x19
  400eab:	e9 50 fe ff ff       	jmp    400d00 <_init+0x20>

0000000000400eb0 <gethostname@plt>:
  400eb0:	ff 25 32 42 20 00    	jmp    *0x204232(%rip)        # 6050e8 <gethostname@GLIBC_2.2.5>
  400eb6:	68 1a 00 00 00       	push   $0x1a
  400ebb:	e9 40 fe ff ff       	jmp    400d00 <_init+0x20>

0000000000400ec0 <sprintf@plt>:
  400ec0:	ff 25 2a 42 20 00    	jmp    *0x20422a(%rip)        # 6050f0 <sprintf@GLIBC_2.2.5>
  400ec6:	68 1b 00 00 00       	push   $0x1b
  400ecb:	e9 30 fe ff ff       	jmp    400d00 <_init+0x20>

0000000000400ed0 <exit@plt>:
  400ed0:	ff 25 22 42 20 00    	jmp    *0x204222(%rip)        # 6050f8 <exit@GLIBC_2.2.5>
  400ed6:	68 1c 00 00 00       	push   $0x1c
  400edb:	e9 20 fe ff ff       	jmp    400d00 <_init+0x20>

0000000000400ee0 <connect@plt>:
  400ee0:	ff 25 1a 42 20 00    	jmp    *0x20421a(%rip)        # 605100 <connect@GLIBC_2.2.5>
  400ee6:	68 1d 00 00 00       	push   $0x1d
  400eeb:	e9 10 fe ff ff       	jmp    400d00 <_init+0x20>

0000000000400ef0 <getc@plt>:
  400ef0:	ff 25 12 42 20 00    	jmp    *0x204212(%rip)        # 605108 <getc@GLIBC_2.2.5>
  400ef6:	68 1e 00 00 00       	push   $0x1e
  400efb:	e9 00 fe ff ff       	jmp    400d00 <_init+0x20>

0000000000400f00 <socket@plt>:
  400f00:	ff 25 0a 42 20 00    	jmp    *0x20420a(%rip)        # 605110 <socket@GLIBC_2.2.5>
  400f06:	68 1f 00 00 00       	push   $0x1f
  400f0b:	e9 f0 fd ff ff       	jmp    400d00 <_init+0x20>

Disassembly of section .text:

0000000000400f10 <_start>:
  400f10:	31 ed                	xor    %ebp,%ebp
  400f12:	49 89 d1             	mov    %rdx,%r9
  400f15:	5e                   	pop    %rsi
  400f16:	48 89 e2             	mov    %rsp,%rdx
  400f19:	48 83 e4 f0          	and    $0xfffffffffffffff0,%rsp
  400f1d:	50                   	push   %rax
  400f1e:	54                   	push   %rsp
  400f1f:	49 c7 c0 ee 2d 40 00 	mov    $0x402dee,%r8
  400f26:	48 c7 c1 6e 2d 40 00 	mov    $0x402d6e,%rcx
  400f2d:	48 c7 c7 b0 11 40 00 	mov    $0x4011b0,%rdi
  400f34:	ff 15 b6 40 20 00    	call   *0x2040b6(%rip)        # 604ff0 <__libc_start_main@GLIBC_2.2.5>
  400f3a:	f4                   	hlt    
  400f3b:	0f 1f 44 00 00       	nopl   0x0(%rax,%rax,1)

0000000000400f40 <deregister_tm_clones>:
  400f40:	55                   	push   %rbp
  400f41:	b8 90 54 60 00       	mov    $0x605490,%eax
  400f46:	48 3d 90 54 60 00    	cmp    $0x605490,%rax
  400f4c:	48 89 e5             	mov    %rsp,%rbp
  400f4f:	74 17                	je     400f68 <deregister_tm_clones+0x28>
  400f51:	b8 00 00 00 00       	mov    $0x0,%eax
  400f56:	48 85 c0             	test   %rax,%rax
  400f59:	74 0d                	je     400f68 <deregister_tm_clones+0x28>
  400f5b:	5d                   	pop    %rbp
  400f5c:	bf 90 54 60 00       	mov    $0x605490,%edi
  400f61:	ff e0                	jmp    *%rax
  400f63:	0f 1f 44 00 00       	nopl   0x0(%rax,%rax,1)
  400f68:	5d                   	pop    %rbp
  400f69:	c3                   	ret    
  400f6a:	66 0f 1f 44 00 00    	nopw   0x0(%rax,%rax,1)

0000000000400f70 <register_tm_clones>:
  400f70:	be 90 54 60 00       	mov    $0x605490,%esi
  400f75:	55                   	push   %rbp
  400f76:	48 81 ee 90 54 60 00 	sub    $0x605490,%rsi
  400f7d:	48 89 e5             	mov    %rsp,%rbp
  400f80:	48 c1 fe 03          	sar    $0x3,%rsi
  400f84:	48 89 f0             	mov    %rsi,%rax
  400f87:	48 c1 e8 3f          	shr    $0x3f,%rax
  400f8b:	48 01 c6             	add    %rax,%rsi
  400f8e:	48 d1 fe             	sar    %rsi
  400f91:	74 15                	je     400fa8 <register_tm_clones+0x38>
  400f93:	b8 00 00 00 00       	mov    $0x0,%eax
  400f98:	48 85 c0             	test   %rax,%rax
  400f9b:	74 0b                	je     400fa8 <register_tm_clones+0x38>
  400f9d:	5d                   	pop    %rbp
  400f9e:	bf 90 54 60 00       	mov    $0x605490,%edi
  400fa3:	ff e0                	jmp    *%rax
  400fa5:	0f 1f 00             	nopl   (%rax)
  400fa8:	5d                   	pop    %rbp
  400fa9:	c3                   	ret    
  400faa:	66 0f 1f 44 00 00    	nopw   0x0(%rax,%rax,1)

0000000000400fb0 <__do_global_dtors_aux>:
  400fb0:	80 3d 11 45 20 00 00 	cmpb   $0x0,0x204511(%rip)        # 6054c8 <completed.6999>
  400fb7:	75 17                	jne    400fd0 <__do_global_dtors_aux+0x20>
  400fb9:	55                   	push   %rbp
  400fba:	48 89 e5             	mov    %rsp,%rbp
  400fbd:	e8 7e ff ff ff       	call   400f40 <deregister_tm_clones>
  400fc2:	c6 05 ff 44 20 00 01 	movb   $0x1,0x2044ff(%rip)        # 6054c8 <completed.6999>
  400fc9:	5d                   	pop    %rbp
  400fca:	c3                   	ret    
  400fcb:	0f 1f 44 00 00       	nopl   0x0(%rax,%rax,1)
  400fd0:	f3 c3                	repz ret 
  400fd2:	66 66 2e 0f 1f 84 00 	data16 cs nopw 0x0(%rax,%rax,1)
  400fd9:	00 00 00 00 
  400fdd:	0f 1f 00             	nopl   (%rax)

0000000000400fe0 <frame_dummy>:
  400fe0:	55                   	push   %rbp
  400fe1:	48 89 e5             	mov    %rsp,%rbp
  400fe4:	5d                   	pop    %rbp
  400fe5:	eb 89                	jmp    400f70 <register_tm_clones>

0000000000400fe7 <usage>:
  400fe7:	48 83 ec 08          	sub    $0x8,%rsp
  400feb:	48 89 fe             	mov    %rdi,%rsi
  400fee:	83 3d 13 45 20 00 00 	cmpl   $0x0,0x204513(%rip)        # 605508 <is_checker>
  400ff5:	74 41                	je     401038 <usage+0x51>
  400ff7:	bf 08 2e 40 00       	mov    $0x402e08,%edi
  400ffc:	b8 00 00 00 00       	mov    $0x0,%eax
  401001:	e8 8a fd ff ff       	call   400d90 <printf@plt>
  401006:	bf 40 2e 40 00       	mov    $0x402e40,%edi
  40100b:	e8 50 fd ff ff       	call   400d60 <puts@plt>
  401010:	bf b8 2f 40 00       	mov    $0x402fb8,%edi
  401015:	e8 46 fd ff ff       	call   400d60 <puts@plt>
  40101a:	bf 68 2e 40 00       	mov    $0x402e68,%edi
  40101f:	e8 3c fd ff ff       	call   400d60 <puts@plt>
  401024:	bf d2 2f 40 00       	mov    $0x402fd2,%edi
  401029:	e8 32 fd ff ff       	call   400d60 <puts@plt>
  40102e:	bf 00 00 00 00       	mov    $0x0,%edi
  401033:	e8 98 fe ff ff       	call   400ed0 <exit@plt>
  401038:	bf ee 2f 40 00       	mov    $0x402fee,%edi
  40103d:	b8 00 00 00 00       	mov    $0x0,%eax
  401042:	e8 49 fd ff ff       	call   400d90 <printf@plt>
  401047:	bf 90 2e 40 00       	mov    $0x402e90,%edi
  40104c:	e8 0f fd ff ff       	call   400d60 <puts@plt>
  401051:	bf b8 2e 40 00       	mov    $0x402eb8,%edi
  401056:	e8 05 fd ff ff       	call   400d60 <puts@plt>
  40105b:	bf 0c 30 40 00       	mov    $0x40300c,%edi
  401060:	e8 fb fc ff ff       	call   400d60 <puts@plt>
  401065:	eb c7                	jmp    40102e <usage+0x47>

0000000000401067 <initialize_target>:
  401067:	55                   	push   %rbp
  401068:	53                   	push   %rbx
  401069:	48 81 ec 08 21 00 00 	sub    $0x2108,%rsp
  401070:	89 f5                	mov    %esi,%ebp
  401072:	89 3d 80 44 20 00    	mov    %edi,0x204480(%rip)        # 6054f8 <check_level>
  401078:	8b 3d ca 40 20 00    	mov    0x2040ca(%rip),%edi        # 605148 <target_id>
  40107e:	e8 b5 1c 00 00       	call   402d38 <gencookie>
  401083:	89 05 7b 44 20 00    	mov    %eax,0x20447b(%rip)        # 605504 <cookie>
  401089:	89 c7                	mov    %eax,%edi
  40108b:	e8 a8 1c 00 00       	call   402d38 <gencookie>
  401090:	89 05 6a 44 20 00    	mov    %eax,0x20446a(%rip)        # 605500 <authkey>
  401096:	8b 05 ac 40 20 00    	mov    0x2040ac(%rip),%eax        # 605148 <target_id>
  40109c:	8d 78 01             	lea    0x1(%rax),%edi
  40109f:	e8 8c fc ff ff       	call   400d30 <srandom@plt>
  4010a4:	e8 97 fd ff ff       	call   400e40 <random@plt>
  4010a9:	89 c7                	mov    %eax,%edi
  4010ab:	e8 b8 02 00 00       	call   401368 <scramble>
  4010b0:	89 c3                	mov    %eax,%ebx
  4010b2:	85 ed                	test   %ebp,%ebp
  4010b4:	75 3d                	jne    4010f3 <initialize_target+0x8c>
  4010b6:	b8 00 00 00 00       	mov    $0x0,%eax
  4010bb:	01 d8                	add    %ebx,%eax
  4010bd:	0f b7 c0             	movzwl %ax,%eax
  4010c0:	8d 04 c5 00 01 00 00 	lea    0x100(,%rax,8),%eax
  4010c7:	89 c0                	mov    %eax,%eax
  4010c9:	48 89 05 b0 43 20 00 	mov    %rax,0x2043b0(%rip)        # 605480 <buf_offset>
  4010d0:	c6 05 51 50 20 00 72 	movb   $0x72,0x205051(%rip)        # 606128 <target_prefix>
  4010d7:	83 3d aa 43 20 00 00 	cmpl   $0x0,0x2043aa(%rip)        # 605488 <notify>
  4010de:	74 09                	je     4010e9 <initialize_target+0x82>
  4010e0:	83 3d 21 44 20 00 00 	cmpl   $0x0,0x204421(%rip)        # 605508 <is_checker>
  4010e7:	74 22                	je     40110b <initialize_target+0xa4>
  4010e9:	48 81 c4 08 21 00 00 	add    $0x2108,%rsp
  4010f0:	5b                   	pop    %rbx
  4010f1:	5d                   	pop    %rbp
  4010f2:	c3                   	ret    
  4010f3:	bf 00 00 00 00       	mov    $0x0,%edi
  4010f8:	e8 33 fd ff ff       	call   400e30 <time@plt>
  4010fd:	89 c7                	mov    %eax,%edi
  4010ff:	e8 2c fc ff ff       	call   400d30 <srandom@plt>
  401104:	e8 37 fd ff ff       	call   400e40 <random@plt>
  401109:	eb b0                	jmp    4010bb <initialize_target+0x54>
  40110b:	be 00 01 00 00       	mov    $0x100,%esi
  401110:	48 89 e7             	mov    %rsp,%rdi
  401113:	e8 98 fd ff ff       	call   400eb0 <gethostname@plt>
  401118:	89 c5                	mov    %eax,%ebp
  40111a:	85 c0                	test   %eax,%eax
  40111c:	75 23                	jne    401141 <initialize_target+0xda>
  40111e:	89 c3                	mov    %eax,%ebx
  401120:	48 63 c3             	movslq %ebx,%rax
  401123:	48 8b 3c c5 60 51 60 	mov    0x605160(,%rax,8),%rdi
  40112a:	00 
  40112b:	48 85 ff             	test   %rdi,%rdi
  40112e:	74 2a                	je     40115a <initialize_target+0xf3>
  401130:	48 89 e6             	mov    %rsp,%rsi
  401133:	e8 d8 fb ff ff       	call   400d10 <strcasecmp@plt>
  401138:	85 c0                	test   %eax,%eax
  40113a:	74 19                	je     401155 <initialize_target+0xee>
  40113c:	83 c3 01             	add    $0x1,%ebx
  40113f:	eb df                	jmp    401120 <initialize_target+0xb9>
  401141:	bf e8 2e 40 00       	mov    $0x402ee8,%edi
  401146:	e8 15 fc ff ff       	call   400d60 <puts@plt>
  40114b:	bf 08 00 00 00       	mov    $0x8,%edi
  401150:	e8 7b fd ff ff       	call   400ed0 <exit@plt>
  401155:	bd 01 00 00 00       	mov    $0x1,%ebp
  40115a:	85 ed                	test   %ebp,%ebp
  40115c:	74 36                	je     401194 <initialize_target+0x12d>
  40115e:	48 8d bc 24 00 01 00 	lea    0x100(%rsp),%rdi
  401165:	00 
  401166:	e8 60 19 00 00       	call   402acb <init_driver>
  40116b:	85 c0                	test   %eax,%eax
  40116d:	0f 89 76 ff ff ff    	jns    4010e9 <initialize_target+0x82>
  401173:	48 8d b4 24 00 01 00 	lea    0x100(%rsp),%rsi
  40117a:	00 
  40117b:	bf 60 2f 40 00       	mov    $0x402f60,%edi
  401180:	b8 00 00 00 00       	mov    $0x0,%eax
  401185:	e8 06 fc ff ff       	call   400d90 <printf@plt>
  40118a:	bf 08 00 00 00       	mov    $0x8,%edi
  40118f:	e8 3c fd ff ff       	call   400ed0 <exit@plt>
  401194:	48 89 e6             	mov    %rsp,%rsi
  401197:	bf 20 2f 40 00       	mov    $0x402f20,%edi
  40119c:	b8 00 00 00 00       	mov    $0x0,%eax
  4011a1:	e8 ea fb ff ff       	call   400d90 <printf@plt>
  4011a6:	bf 08 00 00 00       	mov    $0x8,%edi
  4011ab:	e8 20 fd ff ff       	call   400ed0 <exit@plt>

00000000004011b0 <main>:
  4011b0:	41 56                	push   %r14
  4011b2:	41 55                	push   %r13
  4011b4:	41 54                	push   %r12
  4011b6:	55                   	push   %rbp
  4011b7:	53                   	push   %rbx
  4011b8:	41 89 fc             	mov    %edi,%r12d
  4011bb:	48 89 f3             	mov    %rsi,%rbx
  4011be:	be d3 1e 40 00       	mov    $0x401ed3,%esi
  4011c3:	bf 0b 00 00 00       	mov    $0xb,%edi
  4011c8:	e8 13 fc ff ff       	call   400de0 <signal@plt>
  4011cd:	be 85 1e 40 00       	mov    $0x401e85,%esi
  4011d2:	bf 07 00 00 00       	mov    $0x7,%edi
  4011d7:	e8 04 fc ff ff       	call   400de0 <signal@plt>
  4011dc:	be 21 1f 40 00       	mov    $0x401f21,%esi
  4011e1:	bf 04 00 00 00       	mov    $0x4,%edi
  4011e6:	e8 f5 fb ff ff       	call   400de0 <signal@plt>
  4011eb:	83 3d 16 43 20 00 00 	cmpl   $0x0,0x204316(%rip)        # 605508 <is_checker>
  4011f2:	75 24                	jne    401218 <main+0x68>
  4011f4:	bd 25 30 40 00       	mov    $0x403025,%ebp
  4011f9:	48 8b 05 a0 42 20 00 	mov    0x2042a0(%rip),%rax        # 6054a0 <stdin@@GLIBC_2.2.5>
  401200:	48 89 05 e9 42 20 00 	mov    %rax,0x2042e9(%rip)        # 6054f0 <infile>
  401207:	41 bd 00 00 00 00    	mov    $0x0,%r13d
  40120d:	41 be 00 00 00 00    	mov    $0x0,%r14d
  401213:	e9 80 00 00 00       	jmp    401298 <main+0xe8>
  401218:	be 6f 1f 40 00       	mov    $0x401f6f,%esi
  40121d:	bf 0e 00 00 00       	mov    $0xe,%edi
  401222:	e8 b9 fb ff ff       	call   400de0 <signal@plt>
  401227:	bf 05 00 00 00       	mov    $0x5,%edi
  40122c:	e8 7f fb ff ff       	call   400db0 <alarm@plt>
  401231:	bd 2a 30 40 00       	mov    $0x40302a,%ebp
  401236:	eb c1                	jmp    4011f9 <main+0x49>
  401238:	48 8b 3b             	mov    (%rbx),%rdi
  40123b:	e8 a7 fd ff ff       	call   400fe7 <usage>
  401240:	be c5 32 40 00       	mov    $0x4032c5,%esi
  401245:	48 8b 3d 5c 42 20 00 	mov    0x20425c(%rip),%rdi        # 6054a8 <optarg@@GLIBC_2.2.5>
  40124c:	e8 2f fc ff ff       	call   400e80 <fopen@plt>
  401251:	48 89 05 98 42 20 00 	mov    %rax,0x204298(%rip)        # 6054f0 <infile>
  401258:	48 85 c0             	test   %rax,%rax
  40125b:	75 3b                	jne    401298 <main+0xe8>
  40125d:	48 8b 15 44 42 20 00 	mov    0x204244(%rip),%rdx        # 6054a8 <optarg@@GLIBC_2.2.5>
  401264:	be 32 30 40 00       	mov    $0x403032,%esi
  401269:	48 8b 3d 50 42 20 00 	mov    0x204250(%rip),%rdi        # 6054c0 <stderr@@GLIBC_2.2.5>
  401270:	e8 8b fb ff ff       	call   400e00 <fprintf@plt>
  401275:	b8 01 00 00 00       	mov    $0x1,%eax
  40127a:	e9 c2 00 00 00       	jmp    401341 <main+0x191>
  40127f:	ba 10 00 00 00       	mov    $0x10,%edx
  401284:	be 00 00 00 00       	mov    $0x0,%esi
  401289:	48 8b 3d 18 42 20 00 	mov    0x204218(%rip),%rdi        # 6054a8 <optarg@@GLIBC_2.2.5>
  401290:	e8 0b fc ff ff       	call   400ea0 <strtoul@plt>
  401295:	41 89 c6             	mov    %eax,%r14d
  401298:	48 89 ea             	mov    %rbp,%rdx
  40129b:	48 89 de             	mov    %rbx,%rsi
  40129e:	44 89 e7             	mov    %r12d,%edi
  4012a1:	e8 ea fb ff ff       	call   400e90 <getopt@plt>
  4012a6:	3c ff                	cmp    $0xff,%al
  4012a8:	74 52                	je     4012fc <main+0x14c>
  4012aa:	0f be f0             	movsbl %al,%esi
  4012ad:	83 e8 61             	sub    $0x61,%eax
  4012b0:	3c 10                	cmp    $0x10,%al
  4012b2:	77 31                	ja     4012e5 <main+0x135>
  4012b4:	0f b6 c0             	movzbl %al,%eax
  4012b7:	ff 24 c5 70 30 40 00 	jmp    *0x403070(,%rax,8)
  4012be:	ba 0a 00 00 00       	mov    $0xa,%edx
  4012c3:	be 00 00 00 00       	mov    $0x0,%esi
  4012c8:	48 8b 3d d9 41 20 00 	mov    0x2041d9(%rip),%rdi        # 6054a8 <optarg@@GLIBC_2.2.5>
  4012cf:	e8 3c fb ff ff       	call   400e10 <strtol@plt>
  4012d4:	41 89 c5             	mov    %eax,%r13d
  4012d7:	eb bf                	jmp    401298 <main+0xe8>
  4012d9:	c7 05 a5 41 20 00 00 	movl   $0x0,0x2041a5(%rip)        # 605488 <notify>
  4012e0:	00 00 00 
  4012e3:	eb b3                	jmp    401298 <main+0xe8>
  4012e5:	bf 4f 30 40 00       	mov    $0x40304f,%edi
  4012ea:	b8 00 00 00 00       	mov    $0x0,%eax
  4012ef:	e8 9c fa ff ff       	call   400d90 <printf@plt>
  4012f4:	48 8b 3b             	mov    (%rbx),%rdi
  4012f7:	e8 eb fc ff ff       	call   400fe7 <usage>
  4012fc:	be 01 00 00 00       	mov    $0x1,%esi
  401301:	44 89 ef             	mov    %r13d,%edi
  401304:	e8 5e fd ff ff       	call   401067 <initialize_target>
  401309:	83 3d f8 41 20 00 00 	cmpl   $0x0,0x2041f8(%rip)        # 605508 <is_checker>
  401310:	74 09                	je     40131b <main+0x16b>
  401312:	44 39 35 e7 41 20 00 	cmp    %r14d,0x2041e7(%rip)        # 605500 <authkey>
  401319:	75 2f                	jne    40134a <main+0x19a>
  40131b:	8b 35 e3 41 20 00    	mov    0x2041e3(%rip),%esi        # 605504 <cookie>
  401321:	bf 62 30 40 00       	mov    $0x403062,%edi
  401326:	b8 00 00 00 00       	mov    $0x0,%eax
  40132b:	e8 60 fa ff ff       	call   400d90 <printf@plt>
  401330:	48 8b 3d 49 41 20 00 	mov    0x204149(%rip),%rdi        # 605480 <buf_offset>
  401337:	e8 81 0c 00 00       	call   401fbd <launch>
  40133c:	b8 00 00 00 00       	mov    $0x0,%eax
  401341:	5b                   	pop    %rbx
  401342:	5d                   	pop    %rbp
  401343:	41 5c                	pop    %r12
  401345:	41 5d                	pop    %r13
  401347:	41 5e                	pop    %r14
  401349:	c3                   	ret    
  40134a:	44 89 f6             	mov    %r14d,%esi
  40134d:	bf 88 2f 40 00       	mov    $0x402f88,%edi
  401352:	b8 00 00 00 00       	mov    $0x0,%eax
  401357:	e8 34 fa ff ff       	call   400d90 <printf@plt>
  40135c:	b8 00 00 00 00       	mov    $0x0,%eax
  401361:	e8 1b 08 00 00       	call   401b81 <check_fail>
  401366:	eb b3                	jmp    40131b <main+0x16b>

0000000000401368 <scramble>:
  401368:	b8 00 00 00 00       	mov    $0x0,%eax
  40136d:	eb 11                	jmp    401380 <scramble+0x18>
  40136f:	69 d0 a1 a9 00 00    	imul   $0xa9a1,%eax,%edx
  401375:	01 fa                	add    %edi,%edx
  401377:	89 c1                	mov    %eax,%ecx
  401379:	89 54 8c d0          	mov    %edx,-0x30(%rsp,%rcx,4)
  40137d:	83 c0 01             	add    $0x1,%eax
  401380:	83 f8 09             	cmp    $0x9,%eax
  401383:	76 ea                	jbe    40136f <scramble+0x7>
  401385:	8b 44 24 d0          	mov    -0x30(%rsp),%eax
  401389:	69 c0 30 5f 00 00    	imul   $0x5f30,%eax,%eax
  40138f:	89 44 24 d0          	mov    %eax,-0x30(%rsp)
  401393:	8b 44 24 e8          	mov    -0x18(%rsp),%eax
  401397:	69 c0 1c 6b 00 00    	imul   $0x6b1c,%eax,%eax
  40139d:	89 44 24 e8          	mov    %eax,-0x18(%rsp)
  4013a1:	8b 44 24 e8          	mov    -0x18(%rsp),%eax
  4013a5:	69 c0 44 9d 00 00    	imul   $0x9d44,%eax,%eax
  4013ab:	89 44 24 e8          	mov    %eax,-0x18(%rsp)
  4013af:	8b 44 24 e8          	mov    -0x18(%rsp),%eax
  4013b3:	69 c0 b2 36 00 00    	imul   $0x36b2,%eax,%eax
  4013b9:	89 44 24 e8          	mov    %eax,-0x18(%rsp)
  4013bd:	8b 44 24 e0          	mov    -0x20(%rsp),%eax
  4013c1:	69 c0 aa 52 00 00    	imul   $0x52aa,%eax,%eax
  4013c7:	89 44 24 e0          	mov    %eax,-0x20(%rsp)
  4013cb:	8b 44 24 ec          	mov    -0x14(%rsp),%eax
  4013cf:	69 c0 e1 27 00 00    	imul   $0x27e1,%eax,%eax
  4013d5:	89 44 24 ec          	mov    %eax,-0x14(%rsp)
  4013d9:	8b 44 24 f4          	mov    -0xc(%rsp),%eax
  4013dd:	69 c0 21 a9 00 00    	imul   $0xa921,%eax,%eax
  4013e3:	89 44 24 f4          	mov    %eax,-0xc(%rsp)
  4013e7:	8b 44 24 d4          	mov    -0x2c(%rsp),%eax
  4013eb:	69 c0 dd e7 00 00    	imul   $0xe7dd,%eax,%eax
  4013f1:	89 44 24 d4          	mov    %eax,-0x2c(%rsp)
  4013f5:	8b 44 24 e4          	mov    -0x1c(%rsp),%eax
  4013f9:	69 c0 3c 1c 00 00    	imul   $0x1c3c,%eax,%eax
  4013ff:	89 44 24 e4          	mov    %eax,-0x1c(%rsp)
  401403:	8b 44 24 e8          	mov    -0x18(%rsp),%eax
  401407:	69 c0 ff 82 00 00    	imul   $0x82ff,%eax,%eax
  40140d:	89 44 24 e8          	mov    %eax,-0x18(%rsp)
  401411:	8b 44 24 d4          	mov    -0x2c(%rsp),%eax
  401415:	69 c0 0a 86 00 00    	imul   $0x860a,%eax,%eax
  40141b:	89 44 24 d4          	mov    %eax,-0x2c(%rsp)
  40141f:	8b 44 24 dc          	mov    -0x24(%rsp),%eax
  401423:	69 c0 19 80 00 00    	imul   $0x8019,%eax,%eax
  401429:	89 44 24 dc          	mov    %eax,-0x24(%rsp)
  40142d:	8b 44 24 d4          	mov    -0x2c(%rsp),%eax
  401431:	69 c0 af d0 00 00    	imul   $0xd0af,%eax,%eax
  401437:	89 44 24 d4          	mov    %eax,-0x2c(%rsp)
  40143b:	8b 44 24 e8          	mov    -0x18(%rsp),%eax
  40143f:	69 c0 35 32 00 00    	imul   $0x3235,%eax,%eax
  401445:	89 44 24 e8          	mov    %eax,-0x18(%rsp)
  401449:	8b 44 24 f0          	mov    -0x10(%rsp),%eax
  40144d:	69 c0 40 28 00 00    	imul   $0x2840,%eax,%eax
  401453:	89 44 24 f0          	mov    %eax,-0x10(%rsp)
  401457:	8b 44 24 e0          	mov    -0x20(%rsp),%eax
  40145b:	69 c0 d7 c2 00 00    	imul   $0xc2d7,%eax,%eax
  401461:	89 44 24 e0          	mov    %eax,-0x20(%rsp)
  401465:	8b 44 24 d4          	mov    -0x2c(%rsp),%eax
  401469:	69 c0 da f3 00 00    	imul   $0xf3da,%eax,%eax
  40146f:	89 44 24 d4          	mov    %eax,-0x2c(%rsp)
  401473:	8b 44 24 d8          	mov    -0x28(%rsp),%eax
  401477:	69 c0 0c a7 00 00    	imul   $0xa70c,%eax,%eax
  40147d:	89 44 24 d8          	mov    %eax,-0x28(%rsp)
  401481:	8b 44 24 d4          	mov    -0x2c(%rsp),%eax
  401485:	69 c0 c3 d6 00 00    	imul   $0xd6c3,%eax,%eax
  40148b:	89 44 24 d4          	mov    %eax,-0x2c(%rsp)
  40148f:	8b 44 24 e8          	mov    -0x18(%rsp),%eax
  401493:	69 c0 7e 67 00 00    	imul   $0x677e,%eax,%eax
  401499:	89 44 24 e8          	mov    %eax,-0x18(%rsp)
  40149d:	8b 44 24 dc          	mov    -0x24(%rsp),%eax
  4014a1:	69 c0 05 a9 00 00    	imul   $0xa905,%eax,%eax
  4014a7:	89 44 24 dc          	mov    %eax,-0x24(%rsp)
  4014ab:	8b 44 24 e4          	mov    -0x1c(%rsp),%eax
  4014af:	69 c0 31 cc 00 00    	imul   $0xcc31,%eax,%eax
  4014b5:	89 44 24 e4          	mov    %eax,-0x1c(%rsp)
  4014b9:	8b 44 24 d8          	mov    -0x28(%rsp),%eax
  4014bd:	69 c0 72 23 00 00    	imul   $0x2372,%eax,%eax
  4014c3:	89 44 24 d8          	mov    %eax,-0x28(%rsp)
  4014c7:	8b 44 24 e4          	mov    -0x1c(%rsp),%eax
  4014cb:	69 c0 8c d5 00 00    	imul   $0xd58c,%eax,%eax
  4014d1:	89 44 24 e4          	mov    %eax,-0x1c(%rsp)
  4014d5:	8b 44 24 e4          	mov    -0x1c(%rsp),%eax
  4014d9:	69 c0 70 84 00 00    	imul   $0x8470,%eax,%eax
  4014df:	89 44 24 e4          	mov    %eax,-0x1c(%rsp)
  4014e3:	8b 44 24 f0          	mov    -0x10(%rsp),%eax
  4014e7:	69 c0 83 c9 00 00    	imul   $0xc983,%eax,%eax
  4014ed:	89 44 24 f0          	mov    %eax,-0x10(%rsp)
  4014f1:	8b 44 24 e0          	mov    -0x20(%rsp),%eax
  4014f5:	69 c0 1d 6e 00 00    	imul   $0x6e1d,%eax,%eax
  4014fb:	89 44 24 e0          	mov    %eax,-0x20(%rsp)
  4014ff:	8b 44 24 f0          	mov    -0x10(%rsp),%eax
  401503:	69 c0 87 b6 00 00    	imul   $0xb687,%eax,%eax
  401509:	89 44 24 f0          	mov    %eax,-0x10(%rsp)
  40150d:	8b 44 24 e8          	mov    -0x18(%rsp),%eax
  401511:	69 c0 a5 83 00 00    	imul   $0x83a5,%eax,%eax
  401517:	89 44 24 e8          	mov    %eax,-0x18(%rsp)
  40151b:	8b 44 24 dc          	mov    -0x24(%rsp),%eax
  40151f:	69 c0 02 58 00 00    	imul   $0x5802,%eax,%eax
  401525:	89 44 24 dc          	mov    %eax,-0x24(%rsp)
  401529:	8b 44 24 dc          	mov    -0x24(%rsp),%eax
  40152d:	69 c0 34 5c 00 00    	imul   $0x5c34,%eax,%eax
  401533:	89 44 24 dc          	mov    %eax,-0x24(%rsp)
  401537:	8b 44 24 f0          	mov    -0x10(%rsp),%eax
  40153b:	69 c0 55 33 00 00    	imul   $0x3355,%eax,%eax
  401541:	89 44 24 f0          	mov    %eax,-0x10(%rsp)
  401545:	8b 44 24 d0          	mov    -0x30(%rsp),%eax
  401549:	69 c0 cd 48 00 00    	imul   $0x48cd,%eax,%eax
  40154f:	89 44 24 d0          	mov    %eax,-0x30(%rsp)
  401553:	8b 44 24 e0          	mov    -0x20(%rsp),%eax
  401557:	69 c0 2c e1 00 00    	imul   $0xe12c,%eax,%eax
  40155d:	89 44 24 e0          	mov    %eax,-0x20(%rsp)
  401561:	8b 44 24 d0          	mov    -0x30(%rsp),%eax
  401565:	69 c0 21 b8 00 00    	imul   $0xb821,%eax,%eax
  40156b:	89 44 24 d0          	mov    %eax,-0x30(%rsp)
  40156f:	8b 44 24 f0          	mov    -0x10(%rsp),%eax
  401573:	69 c0 fe 48 00 00    	imul   $0x48fe,%eax,%eax
  401579:	89 44 24 f0          	mov    %eax,-0x10(%rsp)
  40157d:	8b 44 24 dc          	mov    -0x24(%rsp),%eax
  401581:	69 c0 0a d8 00 00    	imul   $0xd80a,%eax,%eax
  401587:	89 44 24 dc          	mov    %eax,-0x24(%rsp)
  40158b:	8b 44 24 d0          	mov    -0x30(%rsp),%eax
  40158f:	69 c0 4d b3 00 00    	imul   $0xb34d,%eax,%eax
  401595:	89 44 24 d0          	mov    %eax,-0x30(%rsp)
  401599:	8b 44 24 e0          	mov    -0x20(%rsp),%eax
  40159d:	69 c0 3e c9 00 00    	imul   $0xc93e,%eax,%eax
  4015a3:	89 44 24 e0          	mov    %eax,-0x20(%rsp)
  4015a7:	8b 44 24 e0          	mov    -0x20(%rsp),%eax
  4015ab:	69 c0 2b 3b 00 00    	imul   $0x3b2b,%eax,%eax
  4015b1:	89 44 24 e0          	mov    %eax,-0x20(%rsp)
  4015b5:	8b 44 24 d4          	mov    -0x2c(%rsp),%eax
  4015b9:	69 c0 65 e1 00 00    	imul   $0xe165,%eax,%eax
  4015bf:	89 44 24 d4          	mov    %eax,-0x2c(%rsp)
  4015c3:	8b 44 24 d0          	mov    -0x30(%rsp),%eax
  4015c7:	69 c0 28 58 00 00    	imul   $0x5828,%eax,%eax
  4015cd:	89 44 24 d0          	mov    %eax,-0x30(%rsp)
  4015d1:	8b 44 24 ec          	mov    -0x14(%rsp),%eax
  4015d5:	69 c0 4b 4e 00 00    	imul   $0x4e4b,%eax,%eax
  4015db:	89 44 24 ec          	mov    %eax,-0x14(%rsp)
  4015df:	8b 44 24 dc          	mov    -0x24(%rsp),%eax
  4015e3:	69 c0 4e 8e 00 00    	imul   $0x8e4e,%eax,%eax
  4015e9:	89 44 24 dc          	mov    %eax,-0x24(%rsp)
  4015ed:	8b 44 24 e8          	mov    -0x18(%rsp),%eax
  4015f1:	69 c0 6c f7 00 00    	imul   $0xf76c,%eax,%eax
  4015f7:	89 44 24 e8          	mov    %eax,-0x18(%rsp)
  4015fb:	8b 44 24 e0          	mov    -0x20(%rsp),%eax
  4015ff:	69 c0 d6 7d 00 00    	imul   $0x7dd6,%eax,%eax
  401605:	89 44 24 e0          	mov    %eax,-0x20(%rsp)
  401609:	8b 44 24 e8          	mov    -0x18(%rsp),%eax
  40160d:	69 c0 2a 01 00 00    	imul   $0x12a,%eax,%eax
  401613:	89 44 24 e8          	mov    %eax,-0x18(%rsp)
  401617:	8b 44 24 ec          	mov    -0x14(%rsp),%eax
  40161b:	69 c0 af a3 00 00    	imul   $0xa3af,%eax,%eax
  401621:	89 44 24 ec          	mov    %eax,-0x14(%rsp)
  401625:	8b 44 24 e4          	mov    -0x1c(%rsp),%eax
  401629:	69 c0 8e 8b 00 00    	imul   $0x8b8e,%eax,%eax
  40162f:	89 44 24 e4          	mov    %eax,-0x1c(%rsp)
  401633:	8b 44 24 ec          	mov    -0x14(%rsp),%eax
  401637:	69 c0 87 69 00 00    	imul   $0x6987,%eax,%eax
  40163d:	89 44 24 ec          	mov    %eax,-0x14(%rsp)
  401641:	8b 44 24 d8          	mov    -0x28(%rsp),%eax
  401645:	69 c0 86 cd 00 00    	imul   $0xcd86,%eax,%eax
  40164b:	89 44 24 d8          	mov    %eax,-0x28(%rsp)
  40164f:	8b 44 24 e0          	mov    -0x20(%rsp),%eax
  401653:	69 c0 d5 a4 00 00    	imul   $0xa4d5,%eax,%eax
  401659:	89 44 24 e0          	mov    %eax,-0x20(%rsp)
  40165d:	8b 44 24 d4          	mov    -0x2c(%rsp),%eax
  401661:	69 c0 b5 c7 00 00    	imul   $0xc7b5,%eax,%eax
  401667:	89 44 24 d4          	mov    %eax,-0x2c(%rsp)
  40166b:	8b 44 24 dc          	mov    -0x24(%rsp),%eax
  40166f:	69 c0 0c a1 00 00    	imul   $0xa10c,%eax,%eax
  401675:	89 44 24 dc          	mov    %eax,-0x24(%rsp)
  401679:	8b 44 24 e0          	mov    -0x20(%rsp),%eax
  40167d:	69 c0 fd e0 00 00    	imul   $0xe0fd,%eax,%eax
  401683:	89 44 24 e0          	mov    %eax,-0x20(%rsp)
  401687:	8b 44 24 f0          	mov    -0x10(%rsp),%eax
  40168b:	69 c0 a1 de 00 00    	imul   $0xdea1,%eax,%eax
  401691:	89 44 24 f0          	mov    %eax,-0x10(%rsp)
  401695:	8b 44 24 e4          	mov    -0x1c(%rsp),%eax
  401699:	69 c0 e7 e0 00 00    	imul   $0xe0e7,%eax,%eax
  40169f:	89 44 24 e4          	mov    %eax,-0x1c(%rsp)
  4016a3:	8b 44 24 d8          	mov    -0x28(%rsp),%eax
  4016a7:	69 c0 e5 11 00 00    	imul   $0x11e5,%eax,%eax
  4016ad:	89 44 24 d8          	mov    %eax,-0x28(%rsp)
  4016b1:	8b 44 24 ec          	mov    -0x14(%rsp),%eax
  4016b5:	69 c0 79 45 00 00    	imul   $0x4579,%eax,%eax
  4016bb:	89 44 24 ec          	mov    %eax,-0x14(%rsp)
  4016bf:	8b 44 24 d4          	mov    -0x2c(%rsp),%eax
  4016c3:	69 c0 23 01 00 00    	imul   $0x123,%eax,%eax
  4016c9:	89 44 24 d4          	mov    %eax,-0x2c(%rsp)
  4016cd:	8b 44 24 e0          	mov    -0x20(%rsp),%eax
  4016d1:	69 c0 84 86 00 00    	imul   $0x8684,%eax,%eax
  4016d7:	89 44 24 e0          	mov    %eax,-0x20(%rsp)
  4016db:	8b 44 24 f0          	mov    -0x10(%rsp),%eax
  4016df:	69 c0 85 90 00 00    	imul   $0x9085,%eax,%eax
  4016e5:	89 44 24 f0          	mov    %eax,-0x10(%rsp)
  4016e9:	8b 44 24 d0          	mov    -0x30(%rsp),%eax
  4016ed:	69 c0 26 30 00 00    	imul   $0x3026,%eax,%eax
  4016f3:	89 44 24 d0          	mov    %eax,-0x30(%rsp)
  4016f7:	8b 44 24 f0          	mov    -0x10(%rsp),%eax
  4016fb:	69 c0 a5 d1 00 00    	imul   $0xd1a5,%eax,%eax
  401701:	89 44 24 f0          	mov    %eax,-0x10(%rsp)
  401705:	8b 44 24 f0          	mov    -0x10(%rsp),%eax
  401709:	69 c0 10 b9 00 00    	imul   $0xb910,%eax,%eax
  40170f:	89 44 24 f0          	mov    %eax,-0x10(%rsp)
  401713:	8b 44 24 e0          	mov    -0x20(%rsp),%eax
  401717:	69 c0 63 ff 00 00    	imul   $0xff63,%eax,%eax
  40171d:	89 44 24 e0          	mov    %eax,-0x20(%rsp)
  401721:	8b 44 24 e0          	mov    -0x20(%rsp),%eax
  401725:	69 c0 b2 ed 00 00    	imul   $0xedb2,%eax,%eax
  40172b:	89 44 24 e0          	mov    %eax,-0x20(%rsp)
  40172f:	8b 44 24 d0          	mov    -0x30(%rsp),%eax
  401733:	69 c0 26 2c 00 00    	imul   $0x2c26,%eax,%eax
  401739:	89 44 24 d0          	mov    %eax,-0x30(%rsp)
  40173d:	8b 44 24 e8          	mov    -0x18(%rsp),%eax
  401741:	69 c0 5b fc 00 00    	imul   $0xfc5b,%eax,%eax
  401747:	89 44 24 e8          	mov    %eax,-0x18(%rsp)
  40174b:	8b 44 24 e0          	mov    -0x20(%rsp),%eax
  40174f:	69 c0 5b 46 00 00    	imul   $0x465b,%eax,%eax
  401755:	89 44 24 e0          	mov    %eax,-0x20(%rsp)
  401759:	8b 44 24 e4          	mov    -0x1c(%rsp),%eax
  40175d:	69 c0 6a a9 00 00    	imul   $0xa96a,%eax,%eax
  401763:	89 44 24 e4          	mov    %eax,-0x1c(%rsp)
  401767:	8b 44 24 e4          	mov    -0x1c(%rsp),%eax
  40176b:	69 c0 bb 9f 00 00    	imul   $0x9fbb,%eax,%eax
  401771:	89 44 24 e4          	mov    %eax,-0x1c(%rsp)
  401775:	8b 44 24 d8          	mov    -0x28(%rsp),%eax
  401779:	69 c0 c6 5b 00 00    	imul   $0x5bc6,%eax,%eax
  40177f:	89 44 24 d8          	mov    %eax,-0x28(%rsp)
  401783:	8b 44 24 ec          	mov    -0x14(%rsp),%eax
  401787:	69 c0 84 b9 00 00    	imul   $0xb984,%eax,%eax
  40178d:	89 44 24 ec          	mov    %eax,-0x14(%rsp)
  401791:	8b 44 24 e4          	mov    -0x1c(%rsp),%eax
  401795:	69 c0 d3 51 00 00    	imul   $0x51d3,%eax,%eax
  40179b:	89 44 24 e4          	mov    %eax,-0x1c(%rsp)
  40179f:	8b 44 24 ec          	mov    -0x14(%rsp),%eax
  4017a3:	69 c0 24 de 00 00    	imul   $0xde24,%eax,%eax
  4017a9:	89 44 24 ec          	mov    %eax,-0x14(%rsp)
  4017ad:	8b 44 24 f0          	mov    -0x10(%rsp),%eax
  4017b1:	69 c0 a1 39 00 00    	imul   $0x39a1,%eax,%eax
  4017b7:	89 44 24 f0          	mov    %eax,-0x10(%rsp)
  4017bb:	8b 44 24 dc          	mov    -0x24(%rsp),%eax
  4017bf:	69 c0 05 60 00 00    	imul   $0x6005,%eax,%eax
  4017c5:	89 44 24 dc          	mov    %eax,-0x24(%rsp)
  4017c9:	8b 44 24 d8          	mov    -0x28(%rsp),%eax
  4017cd:	69 c0 de a2 00 00    	imul   $0xa2de,%eax,%eax
  4017d3:	89 44 24 d8          	mov    %eax,-0x28(%rsp)
  4017d7:	8b 44 24 f0          	mov    -0x10(%rsp),%eax
  4017db:	69 c0 7b 25 00 00    	imul   $0x257b,%eax,%eax
  4017e1:	89 44 24 f0          	mov    %eax,-0x10(%rsp)
  4017e5:	8b 44 24 f0          	mov    -0x10(%rsp),%eax
  4017e9:	69 c0 d7 6c 00 00    	imul   $0x6cd7,%eax,%eax
  4017ef:	89 44 24 f0          	mov    %eax,-0x10(%rsp)
  4017f3:	8b 44 24 e4          	mov    -0x1c(%rsp),%eax
  4017f7:	69 c0 84 e2 00 00    	imul   $0xe284,%eax,%eax
  4017fd:	89 44 24 e4          	mov    %eax,-0x1c(%rsp)
  401801:	8b 44 24 d8          	mov    -0x28(%rsp),%eax
  401805:	69 c0 17 c9 00 00    	imul   $0xc917,%eax,%eax
  40180b:	89 44 24 d8          	mov    %eax,-0x28(%rsp)
  40180f:	8b 44 24 d0          	mov    -0x30(%rsp),%eax
  401813:	69 c0 f1 0f 00 00    	imul   $0xff1,%eax,%eax
  401819:	89 44 24 d0          	mov    %eax,-0x30(%rsp)
  40181d:	8b 44 24 d4          	mov    -0x2c(%rsp),%eax
  401821:	69 c0 dd db 00 00    	imul   $0xdbdd,%eax,%eax
  401827:	89 44 24 d4          	mov    %eax,-0x2c(%rsp)
  40182b:	8b 44 24 d4          	mov    -0x2c(%rsp),%eax
  40182f:	69 c0 cb a2 00 00    	imul   $0xa2cb,%eax,%eax
  401835:	89 44 24 d4          	mov    %eax,-0x2c(%rsp)
  401839:	ba 00 00 00 00       	mov    $0x0,%edx
  40183e:	b8 00 00 00 00       	mov    $0x0,%eax
  401843:	eb 0b                	jmp    401850 <scramble+0x4e8>
  401845:	89 d1                	mov    %edx,%ecx
  401847:	8b 4c 8c d0          	mov    -0x30(%rsp,%rcx,4),%ecx
  40184b:	01 c8                	add    %ecx,%eax
  40184d:	83 c2 01             	add    $0x1,%edx
  401850:	83 fa 09             	cmp    $0x9,%edx
  401853:	76 f0                	jbe    401845 <scramble+0x4dd>
  401855:	f3 c3                	repz ret 

0000000000401857 <getbuf>:
  401857:	48 83 ec 28          	sub    $0x28,%rsp
  40185b:	48 89 e7             	mov    %rsp,%rdi
  40185e:	e8 4d 03 00 00       	call   401bb0 <Gets>
  401863:	b8 01 00 00 00       	mov    $0x1,%eax
  401868:	48 83 c4 28          	add    $0x28,%rsp
  40186c:	c3                   	ret    

000000000040186d <touch1>:
  40186d:	48 83 ec 08          	sub    $0x8,%rsp
  401871:	c7 05 81 3c 20 00 01 	movl   $0x1,0x203c81(%rip)        # 6054fc <vlevel>
  401878:	00 00 00 
  40187b:	bf 1d 31 40 00       	mov    $0x40311d,%edi
  401880:	e8 db f4 ff ff       	call   400d60 <puts@plt>
  401885:	bf 01 00 00 00       	mov    $0x1,%edi
  40188a:	e8 1c 05 00 00       	call   401dab <validate>
  40188f:	bf 00 00 00 00       	mov    $0x0,%edi
  401894:	e8 37 f6 ff ff       	call   400ed0 <exit@plt>

0000000000401899 <touch2>:
  401899:	48 83 ec 08          	sub    $0x8,%rsp
  40189d:	89 fe                	mov    %edi,%esi
  40189f:	c7 05 53 3c 20 00 02 	movl   $0x2,0x203c53(%rip)        # 6054fc <vlevel>
  4018a6:	00 00 00 
  4018a9:	39 3d 55 3c 20 00    	cmp    %edi,0x203c55(%rip)        # 605504 <cookie>
  4018af:	74 23                	je     4018d4 <touch2+0x3b>
  4018b1:	bf 68 31 40 00       	mov    $0x403168,%edi
  4018b6:	b8 00 00 00 00       	mov    $0x0,%eax
  4018bb:	e8 d0 f4 ff ff       	call   400d90 <printf@plt>
  4018c0:	bf 02 00 00 00       	mov    $0x2,%edi
  4018c5:	e8 93 05 00 00       	call   401e5d <fail>
  4018ca:	bf 00 00 00 00       	mov    $0x0,%edi
  4018cf:	e8 fc f5 ff ff       	call   400ed0 <exit@plt>
  4018d4:	bf 40 31 40 00       	mov    $0x403140,%edi
  4018d9:	b8 00 00 00 00       	mov    $0x0,%eax
  4018de:	e8 ad f4 ff ff       	call   400d90 <printf@plt>
  4018e3:	bf 02 00 00 00       	mov    $0x2,%edi
  4018e8:	e8 be 04 00 00       	call   401dab <validate>
  4018ed:	eb db                	jmp    4018ca <touch2+0x31>

00000000004018ef <hexmatch>:
  4018ef:	41 54                	push   %r12
  4018f1:	55                   	push   %rbp
  4018f2:	53                   	push   %rbx
  4018f3:	48 83 ec 70          	sub    $0x70,%rsp
  4018f7:	89 fd                	mov    %edi,%ebp
  4018f9:	48 89 f3             	mov    %rsi,%rbx
  4018fc:	e8 3f f5 ff ff       	call   400e40 <random@plt>
  401901:	48 89 c1             	mov    %rax,%rcx
  401904:	48 ba 0b d7 a3 70 3d 	movabs $0xa3d70a3d70a3d70b,%rdx
  40190b:	0a d7 a3 
  40190e:	48 f7 ea             	imul   %rdx
  401911:	48 01 ca             	add    %rcx,%rdx
  401914:	48 c1 fa 06          	sar    $0x6,%rdx
  401918:	48 89 c8             	mov    %rcx,%rax
  40191b:	48 c1 f8 3f          	sar    $0x3f,%rax
  40191f:	48 29 c2             	sub    %rax,%rdx
  401922:	48 8d 04 92          	lea    (%rdx,%rdx,4),%rax
  401926:	48 8d 14 80          	lea    (%rax,%rax,4),%rdx
  40192a:	48 8d 04 95 00 00 00 	lea    0x0(,%rdx,4),%rax
  401931:	00 
  401932:	48 29 c1             	sub    %rax,%rcx
  401935:	4c 8d 24 0c          	lea    (%rsp,%rcx,1),%r12
  401939:	89 ea                	mov    %ebp,%edx
  40193b:	be 3a 31 40 00       	mov    $0x40313a,%esi
  401940:	4c 89 e7             	mov    %r12,%rdi
  401943:	b8 00 00 00 00       	mov    $0x0,%eax
  401948:	e8 73 f5 ff ff       	call   400ec0 <sprintf@plt>
  40194d:	ba 09 00 00 00       	mov    $0x9,%edx
  401952:	4c 89 e6             	mov    %r12,%rsi
  401955:	48 89 df             	mov    %rbx,%rdi
  401958:	e8 e3 f3 ff ff       	call   400d40 <strncmp@plt>
  40195d:	85 c0                	test   %eax,%eax
  40195f:	0f 94 c0             	sete   %al
  401962:	0f b6 c0             	movzbl %al,%eax
  401965:	48 83 c4 70          	add    $0x70,%rsp
  401969:	5b                   	pop    %rbx
  40196a:	5d                   	pop    %rbp
  40196b:	41 5c                	pop    %r12
  40196d:	c3                   	ret    

000000000040196e <touch3>:
  40196e:	53                   	push   %rbx
  40196f:	48 89 fb             	mov    %rdi,%rbx
  401972:	c7 05 80 3b 20 00 03 	movl   $0x3,0x203b80(%rip)        # 6054fc <vlevel>
  401979:	00 00 00 
  40197c:	48 89 fe             	mov    %rdi,%rsi
  40197f:	8b 3d 7f 3b 20 00    	mov    0x203b7f(%rip),%edi        # 605504 <cookie>
  401985:	e8 65 ff ff ff       	call   4018ef <hexmatch>
  40198a:	85 c0                	test   %eax,%eax
  40198c:	74 26                	je     4019b4 <touch3+0x46>
  40198e:	48 89 de             	mov    %rbx,%rsi
  401991:	bf 90 31 40 00       	mov    $0x403190,%edi
  401996:	b8 00 00 00 00       	mov    $0x0,%eax
  40199b:	e8 f0 f3 ff ff       	call   400d90 <printf@plt>
  4019a0:	bf 03 00 00 00       	mov    $0x3,%edi
  4019a5:	e8 01 04 00 00       	call   401dab <validate>
  4019aa:	bf 00 00 00 00       	mov    $0x0,%edi
  4019af:	e8 1c f5 ff ff       	call   400ed0 <exit@plt>
  4019b4:	48 89 de             	mov    %rbx,%rsi
  4019b7:	bf b8 31 40 00       	mov    $0x4031b8,%edi
  4019bc:	b8 00 00 00 00       	mov    $0x0,%eax
  4019c1:	e8 ca f3 ff ff       	call   400d90 <printf@plt>
  4019c6:	bf 03 00 00 00       	mov    $0x3,%edi
  4019cb:	e8 8d 04 00 00       	call   401e5d <fail>
  4019d0:	eb d8                	jmp    4019aa <touch3+0x3c>

00000000004019d2 <test>:
  4019d2:	48 83 ec 08          	sub    $0x8,%rsp
  4019d6:	b8 00 00 00 00       	mov    $0x0,%eax
  4019db:	e8 77 fe ff ff       	call   401857 <getbuf>
  4019e0:	89 c6                	mov    %eax,%esi
  4019e2:	bf e0 31 40 00       	mov    $0x4031e0,%edi
  4019e7:	b8 00 00 00 00       	mov    $0x0,%eax
  4019ec:	e8 9f f3 ff ff       	call   400d90 <printf@plt>
  4019f1:	48 83 c4 08          	add    $0x8,%rsp
  4019f5:	c3                   	ret    

00000000004019f6 <start_farm>:
  4019f6:	b8 01 00 00 00       	mov    $0x1,%eax
  4019fb:	c3                   	ret    

00000000004019fc <getval_206>:
  4019fc:	b8 48 89 c7 94       	mov    $0x94c78948,%eax
  401a01:	c3                   	ret    

0000000000401a02 <setval_182>:
  401a02:	c7 07 48 89 c7 c3    	movl   $0xc3c78948,(%rdi)
  401a08:	c3                   	ret    

0000000000401a09 <setval_280>:
  401a09:	c7 07 af 5a 12 58    	movl   $0x58125aaf,(%rdi)
  401a0f:	c3                   	ret    

0000000000401a10 <getval_335>:
  401a10:	b8 3a 58 90 90       	mov    $0x9090583a,%eax
  401a15:	c3                   	ret    

0000000000401a16 <getval_180>:
  401a16:	b8 25 58 94 90       	mov    $0x90945825,%eax
  401a1b:	c3                   	ret    

0000000000401a1c <getval_497>:
  401a1c:	b8 48 89 c7 c3       	mov    $0xc3c78948,%eax
  401a21:	c3                   	ret    

0000000000401a22 <getval_361>:
  401a22:	b8 58 90 90 c1       	mov    $0xc1909058,%eax
  401a27:	c3                   	ret    

0000000000401a28 <getval_144>:
  401a28:	b8 48 8b c7 c3       	mov    $0xc3c78b48,%eax
  401a2d:	c3                   	ret    

0000000000401a2e <mid_farm>:
  401a2e:	b8 01 00 00 00       	mov    $0x1,%eax
  401a33:	c3                   	ret    

0000000000401a34 <add_xy>:
  401a34:	48 8d 04 37          	lea    (%rdi,%rsi,1),%rax
  401a38:	c3                   	ret    

0000000000401a39 <setval_135>:
  401a39:	c7 07 89 d1 90 90    	movl   $0x9090d189,(%rdi)
  401a3f:	c3                   	ret    

0000000000401a40 <getval_490>:
  401a40:	b8 89 ce 20 c9       	mov    $0xc920ce89,%eax
  401a45:	c3                   	ret    

0000000000401a46 <addval_225>:
  401a46:	8d 87 8b ce 84 c9    	lea    -0x367b3175(%rdi),%eax
  401a4c:	c3                   	ret    

0000000000401a4d <setval_122>:
  401a4d:	c7 07 88 d1 08 c9    	movl   $0xc908d188,(%rdi)
  401a53:	c3                   	ret    

0000000000401a54 <addval_192>:
  401a54:	8d 87 88 d1 90 90    	lea    -0x6f6f2e78(%rdi),%eax
  401a5a:	c3                   	ret    

0000000000401a5b <getval_496>:
  401a5b:	b8 48 89 e0 c2       	mov    $0xc2e08948,%eax
  401a60:	c3                   	ret    

0000000000401a61 <getval_134>:
  401a61:	b8 89 ce 38 c9       	mov    $0xc938ce89,%eax
  401a66:	c3                   	ret    

0000000000401a67 <setval_320>:
  401a67:	c7 07 89 c2 90 c3    	movl   $0xc390c289,(%rdi)
  401a6d:	c3                   	ret    

0000000000401a6e <getval_428>:
  401a6e:	b8 a9 d1 20 db       	mov    $0xdb20d1a9,%eax
  401a73:	c3                   	ret    

0000000000401a74 <addval_325>:
  401a74:	8d 87 89 ce 78 c9    	lea    -0x36873177(%rdi),%eax
  401a7a:	c3                   	ret    

0000000000401a7b <addval_102>:
  401a7b:	8d 87 89 c2 84 c9    	lea    -0x367b3d77(%rdi),%eax
  401a81:	c3                   	ret    

0000000000401a82 <setval_270>:
  401a82:	c7 07 89 4c 89 e0    	movl   $0xe0894c89,(%rdi)
  401a88:	c3                   	ret    

0000000000401a89 <getval_165>:
  401a89:	b8 c9 c2 84 d2       	mov    $0xd284c2c9,%eax
  401a8e:	c3                   	ret    

0000000000401a8f <setval_284>:
  401a8f:	c7 07 89 c2 94 c9    	movl   $0xc994c289,(%rdi)
  401a95:	c3                   	ret    

0000000000401a96 <setval_290>:
  401a96:	c7 07 48 89 e0 92    	movl   $0x92e08948,(%rdi)
  401a9c:	c3                   	ret    

0000000000401a9d <setval_169>:
  401a9d:	c7 07 89 d1 84 c9    	movl   $0xc984d189,(%rdi)
  401aa3:	c3                   	ret    

0000000000401aa4 <setval_246>:
  401aa4:	c7 07 8b ce 38 db    	movl   $0xdb38ce8b,(%rdi)
  401aaa:	c3                   	ret    

0000000000401aab <addval_471>:
  401aab:	8d 87 be 89 d1 94    	lea    -0x6b2e7642(%rdi),%eax
  401ab1:	c3                   	ret    

0000000000401ab2 <getval_119>:
  401ab2:	b8 89 c2 28 c0       	mov    $0xc028c289,%eax
  401ab7:	c3                   	ret    

0000000000401ab8 <getval_103>:
  401ab8:	b8 48 89 e0 91       	mov    $0x91e08948,%eax
  401abd:	c3                   	ret    

0000000000401abe <getval_429>:
  401abe:	b8 4f 4d 09 d1       	mov    $0xd1094d4f,%eax
  401ac3:	c3                   	ret    

0000000000401ac4 <addval_219>:
  401ac4:	8d 87 48 8d e0 c3    	lea    -0x3c1f72b8(%rdi),%eax
  401aca:	c3                   	ret    

0000000000401acb <addval_332>:
  401acb:	8d 87 8b ce 90 90    	lea    -0x6f6f3175(%rdi),%eax
  401ad1:	c3                   	ret    

0000000000401ad2 <addval_479>:
  401ad2:	8d 87 48 89 e0 90    	lea    -0x6f1f76b8(%rdi),%eax
  401ad8:	c3                   	ret    

0000000000401ad9 <getval_151>:
  401ad9:	b8 81 c2 38 c0       	mov    $0xc038c281,%eax
  401ade:	c3                   	ret    

0000000000401adf <setval_141>:
  401adf:	c7 07 37 09 d1 90    	movl   $0x90d10937,(%rdi)
  401ae5:	c3                   	ret    

0000000000401ae6 <addval_311>:
  401ae6:	8d 87 21 c9 c2 90    	lea    -0x6f3d36df(%rdi),%eax
  401aec:	c3                   	ret    

0000000000401aed <addval_216>:
  401aed:	8d 87 48 09 e0 90    	lea    -0x6f1ff6b8(%rdi),%eax
  401af3:	c3                   	ret    

0000000000401af4 <setval_468>:
  401af4:	c7 07 89 c2 18 d2    	movl   $0xd218c289,(%rdi)
  401afa:	c3                   	ret    

0000000000401afb <setval_201>:
  401afb:	c7 07 54 48 89 e0    	movl   $0xe0894854,(%rdi)
  401b01:	c3                   	ret    

0000000000401b02 <addval_424>:
  401b02:	8d 87 10 89 ce 92    	lea    -0x6d3176f0(%rdi),%eax
  401b08:	c3                   	ret    

0000000000401b09 <addval_436>:
  401b09:	8d 87 88 ce 90 c3    	lea    -0x3c6f3178(%rdi),%eax
  401b0f:	c3                   	ret    

0000000000401b10 <end_farm>:
  401b10:	b8 01 00 00 00       	mov    $0x1,%eax
  401b15:	c3                   	ret    

0000000000401b16 <save_char>:
  401b16:	8b 05 08 46 20 00    	mov    0x204608(%rip),%eax        # 606124 <gets_cnt>
  401b1c:	3d ff 03 00 00       	cmp    $0x3ff,%eax
  401b21:	7f 49                	jg     401b6c <save_char+0x56>
  401b23:	89 f9                	mov    %edi,%ecx
  401b25:	c0 e9 04             	shr    $0x4,%cl
  401b28:	8d 14 40             	lea    (%rax,%rax,2),%edx
  401b2b:	83 e1 0f             	and    $0xf,%ecx
  401b2e:	0f b6 b1 00 35 40 00 	movzbl 0x403500(%rcx),%esi
  401b35:	48 63 ca             	movslq %edx,%rcx
  401b38:	40 88 b1 20 55 60 00 	mov    %sil,0x605520(%rcx)
  401b3f:	8d 4a 01             	lea    0x1(%rdx),%ecx
  401b42:	83 e7 0f             	and    $0xf,%edi
  401b45:	0f b6 b7 00 35 40 00 	movzbl 0x403500(%rdi),%esi
  401b4c:	48 63 c9             	movslq %ecx,%rcx
  401b4f:	40 88 b1 20 55 60 00 	mov    %sil,0x605520(%rcx)
  401b56:	83 c2 02             	add    $0x2,%edx
  401b59:	48 63 d2             	movslq %edx,%rdx
  401b5c:	c6 82 20 55 60 00 20 	movb   $0x20,0x605520(%rdx)
  401b63:	83 c0 01             	add    $0x1,%eax
  401b66:	89 05 b8 45 20 00    	mov    %eax,0x2045b8(%rip)        # 606124 <gets_cnt>
  401b6c:	f3 c3                	repz ret 

0000000000401b6e <save_term>:
  401b6e:	8b 05 b0 45 20 00    	mov    0x2045b0(%rip),%eax        # 606124 <gets_cnt>
  401b74:	8d 04 40             	lea    (%rax,%rax,2),%eax
  401b77:	48 98                	cltq   
  401b79:	c6 80 20 55 60 00 00 	movb   $0x0,0x605520(%rax)
  401b80:	c3                   	ret    

0000000000401b81 <check_fail>:
  401b81:	48 83 ec 08          	sub    $0x8,%rsp
  401b85:	0f be 35 9c 45 20 00 	movsbl 0x20459c(%rip),%esi        # 606128 <target_prefix>
  401b8c:	b9 20 55 60 00       	mov    $0x605520,%ecx
  401b91:	8b 15 61 39 20 00    	mov    0x203961(%rip),%edx        # 6054f8 <check_level>
  401b97:	bf 03 32 40 00       	mov    $0x403203,%edi
  401b9c:	b8 00 00 00 00       	mov    $0x0,%eax
  401ba1:	e8 ea f1 ff ff       	call   400d90 <printf@plt>
  401ba6:	bf 01 00 00 00       	mov    $0x1,%edi
  401bab:	e8 20 f3 ff ff       	call   400ed0 <exit@plt>

0000000000401bb0 <Gets>:
  401bb0:	41 54                	push   %r12
  401bb2:	55                   	push   %rbp
  401bb3:	53                   	push   %rbx
  401bb4:	49 89 fc             	mov    %rdi,%r12
  401bb7:	c7 05 63 45 20 00 00 	movl   $0x0,0x204563(%rip)        # 606124 <gets_cnt>
  401bbe:	00 00 00 
  401bc1:	48 89 fb             	mov    %rdi,%rbx
  401bc4:	eb 11                	jmp    401bd7 <Gets+0x27>
  401bc6:	48 8d 6b 01          	lea    0x1(%rbx),%rbp
  401bca:	88 03                	mov    %al,(%rbx)
  401bcc:	0f b6 f8             	movzbl %al,%edi
  401bcf:	e8 42 ff ff ff       	call   401b16 <save_char>
  401bd4:	48 89 eb             	mov    %rbp,%rbx
  401bd7:	48 8b 3d 12 39 20 00 	mov    0x203912(%rip),%rdi        # 6054f0 <infile>
  401bde:	e8 0d f3 ff ff       	call   400ef0 <getc@plt>
  401be3:	83 f8 ff             	cmp    $0xffffffff,%eax
  401be6:	74 05                	je     401bed <Gets+0x3d>
  401be8:	83 f8 0a             	cmp    $0xa,%eax
  401beb:	75 d9                	jne    401bc6 <Gets+0x16>
  401bed:	c6 03 00             	movb   $0x0,(%rbx)
  401bf0:	b8 00 00 00 00       	mov    $0x0,%eax
  401bf5:	e8 74 ff ff ff       	call   401b6e <save_term>
  401bfa:	4c 89 e0             	mov    %r12,%rax
  401bfd:	5b                   	pop    %rbx
  401bfe:	5d                   	pop    %rbp
  401bff:	41 5c                	pop    %r12
  401c01:	c3                   	ret    

0000000000401c02 <notify_server>:
  401c02:	83 3d ff 38 20 00 00 	cmpl   $0x0,0x2038ff(%rip)        # 605508 <is_checker>
  401c09:	0f 85 9a 01 00 00    	jne    401da9 <notify_server+0x1a7>
  401c0f:	55                   	push   %rbp
  401c10:	53                   	push   %rbx
  401c11:	48 81 ec 08 40 00 00 	sub    $0x4008,%rsp
  401c18:	89 fb                	mov    %edi,%ebx
  401c1a:	8b 05 04 45 20 00    	mov    0x204504(%rip),%eax        # 606124 <gets_cnt>
  401c20:	83 c0 64             	add    $0x64,%eax
  401c23:	3d 00 20 00 00       	cmp    $0x2000,%eax
  401c28:	0f 8f b5 00 00 00    	jg     401ce3 <notify_server+0xe1>
  401c2e:	44 0f be 0d f2 44 20 	movsbl 0x2044f2(%rip),%r9d        # 606128 <target_prefix>
  401c35:	00 
  401c36:	83 3d 4b 38 20 00 00 	cmpl   $0x0,0x20384b(%rip)        # 605488 <notify>
  401c3d:	0f 84 b9 00 00 00    	je     401cfc <notify_server+0xfa>
  401c43:	44 8b 05 b6 38 20 00 	mov    0x2038b6(%rip),%r8d        # 605500 <authkey>
  401c4a:	85 db                	test   %ebx,%ebx
  401c4c:	0f 84 b5 00 00 00    	je     401d07 <notify_server+0x105>
  401c52:	bd 19 32 40 00       	mov    $0x403219,%ebp
  401c57:	68 20 55 60 00       	push   $0x605520
  401c5c:	56                   	push   %rsi
  401c5d:	48 89 e9             	mov    %rbp,%rcx
  401c60:	8b 15 e2 34 20 00    	mov    0x2034e2(%rip),%edx        # 605148 <target_id>
  401c66:	be 23 32 40 00       	mov    $0x403223,%esi
  401c6b:	48 8d bc 24 10 20 00 	lea    0x2010(%rsp),%rdi
  401c72:	00 
  401c73:	b8 00 00 00 00       	mov    $0x0,%eax
  401c78:	e8 43 f2 ff ff       	call   400ec0 <sprintf@plt>
  401c7d:	48 83 c4 10          	add    $0x10,%rsp
  401c81:	83 3d 00 38 20 00 00 	cmpl   $0x0,0x203800(%rip)        # 605488 <notify>
  401c88:	0f 84 ab 00 00 00    	je     401d39 <notify_server+0x137>
  401c8e:	85 db                	test   %ebx,%ebx
  401c90:	0f 84 97 00 00 00    	je     401d2d <notify_server+0x12b>
  401c96:	49 89 e1             	mov    %rsp,%r9
  401c99:	41 b8 00 00 00 00    	mov    $0x0,%r8d
  401c9f:	48 8d 8c 24 00 20 00 	lea    0x2000(%rsp),%rcx
  401ca6:	00 
  401ca7:	48 8b 15 a2 34 20 00 	mov    0x2034a2(%rip),%rdx        # 605150 <lab>
  401cae:	48 8b 35 a3 34 20 00 	mov    0x2034a3(%rip),%rsi        # 605158 <course>
  401cb5:	48 8b 3d 84 34 20 00 	mov    0x203484(%rip),%rdi        # 605140 <user_id>
  401cbc:	e8 db 0f 00 00       	call   402c9c <driver_post>
  401cc1:	85 c0                	test   %eax,%eax
  401cc3:	78 4c                	js     401d11 <notify_server+0x10f>
  401cc5:	bf 68 33 40 00       	mov    $0x403368,%edi
  401cca:	e8 91 f0 ff ff       	call   400d60 <puts@plt>
  401ccf:	bf 4b 32 40 00       	mov    $0x40324b,%edi
  401cd4:	e8 87 f0 ff ff       	call   400d60 <puts@plt>
  401cd9:	48 81 c4 08 40 00 00 	add    $0x4008,%rsp
  401ce0:	5b                   	pop    %rbx
  401ce1:	5d                   	pop    %rbp
  401ce2:	c3                   	ret    
  401ce3:	bf 38 33 40 00       	mov    $0x403338,%edi
  401ce8:	b8 00 00 00 00       	mov    $0x0,%eax
  401ced:	e8 9e f0 ff ff       	call   400d90 <printf@plt>
  401cf2:	bf 01 00 00 00       	mov    $0x1,%edi
  401cf7:	e8 d4 f1 ff ff       	call   400ed0 <exit@plt>
  401cfc:	41 b8 ff ff ff ff    	mov    $0xffffffff,%r8d
  401d02:	e9 43 ff ff ff       	jmp    401c4a <notify_server+0x48>
  401d07:	bd 1e 32 40 00       	mov    $0x40321e,%ebp
  401d0c:	e9 46 ff ff ff       	jmp    401c57 <notify_server+0x55>
  401d11:	48 89 e6             	mov    %rsp,%rsi
  401d14:	bf 3f 32 40 00       	mov    $0x40323f,%edi
  401d19:	b8 00 00 00 00       	mov    $0x0,%eax
  401d1e:	e8 6d f0 ff ff       	call   400d90 <printf@plt>
  401d23:	bf 01 00 00 00       	mov    $0x1,%edi
  401d28:	e8 a3 f1 ff ff       	call   400ed0 <exit@plt>
  401d2d:	bf 55 32 40 00       	mov    $0x403255,%edi
  401d32:	e8 29 f0 ff ff       	call   400d60 <puts@plt>
  401d37:	eb a0                	jmp    401cd9 <notify_server+0xd7>
  401d39:	48 89 ee             	mov    %rbp,%rsi
  401d3c:	bf a0 33 40 00       	mov    $0x4033a0,%edi
  401d41:	b8 00 00 00 00       	mov    $0x0,%eax
  401d46:	e8 45 f0 ff ff       	call   400d90 <printf@plt>
  401d4b:	48 8b 35 ee 33 20 00 	mov    0x2033ee(%rip),%rsi        # 605140 <user_id>
  401d52:	bf 5c 32 40 00       	mov    $0x40325c,%edi
  401d57:	b8 00 00 00 00       	mov    $0x0,%eax
  401d5c:	e8 2f f0 ff ff       	call   400d90 <printf@plt>
  401d61:	48 8b 35 f0 33 20 00 	mov    0x2033f0(%rip),%rsi        # 605158 <course>
  401d68:	bf 69 32 40 00       	mov    $0x403269,%edi
  401d6d:	b8 00 00 00 00       	mov    $0x0,%eax
  401d72:	e8 19 f0 ff ff       	call   400d90 <printf@plt>
  401d77:	48 8b 35 d2 33 20 00 	mov    0x2033d2(%rip),%rsi        # 605150 <lab>
  401d7e:	bf 75 32 40 00       	mov    $0x403275,%edi
  401d83:	b8 00 00 00 00       	mov    $0x0,%eax
  401d88:	e8 03 f0 ff ff       	call   400d90 <printf@plt>
  401d8d:	48 8d b4 24 00 20 00 	lea    0x2000(%rsp),%rsi
  401d94:	00 
  401d95:	bf 7e 32 40 00       	mov    $0x40327e,%edi
  401d9a:	b8 00 00 00 00       	mov    $0x0,%eax
  401d9f:	e8 ec ef ff ff       	call   400d90 <printf@plt>
  401da4:	e9 30 ff ff ff       	jmp    401cd9 <notify_server+0xd7>
  401da9:	f3 c3                	repz ret 

0000000000401dab <validate>:
  401dab:	53                   	push   %rbx
  401dac:	89 fb                	mov    %edi,%ebx
  401dae:	83 3d 53 37 20 00 00 	cmpl   $0x0,0x203753(%rip)        # 605508 <is_checker>
  401db5:	74 60                	je     401e17 <validate+0x6c>
  401db7:	39 3d 3f 37 20 00    	cmp    %edi,0x20373f(%rip)        # 6054fc <vlevel>
  401dbd:	75 29                	jne    401de8 <validate+0x3d>
  401dbf:	8b 35 33 37 20 00    	mov    0x203733(%rip),%esi        # 6054f8 <check_level>
  401dc5:	39 fe                	cmp    %edi,%esi
  401dc7:	75 33                	jne    401dfc <validate+0x51>
  401dc9:	0f be 35 58 43 20 00 	movsbl 0x204358(%rip),%esi        # 606128 <target_prefix>
  401dd0:	b9 20 55 60 00       	mov    $0x605520,%ecx
  401dd5:	89 fa                	mov    %edi,%edx
  401dd7:	bf a8 32 40 00       	mov    $0x4032a8,%edi
  401ddc:	b8 00 00 00 00       	mov    $0x0,%eax
  401de1:	e8 aa ef ff ff       	call   400d90 <printf@plt>
  401de6:	5b                   	pop    %rbx
  401de7:	c3                   	ret    
  401de8:	bf 8a 32 40 00       	mov    $0x40328a,%edi
  401ded:	e8 6e ef ff ff       	call   400d60 <puts@plt>
  401df2:	b8 00 00 00 00       	mov    $0x0,%eax
  401df7:	e8 85 fd ff ff       	call   401b81 <check_fail>
  401dfc:	89 fa                	mov    %edi,%edx
  401dfe:	bf c8 33 40 00       	mov    $0x4033c8,%edi
  401e03:	b8 00 00 00 00       	mov    $0x0,%eax
  401e08:	e8 83 ef ff ff       	call   400d90 <printf@plt>
  401e0d:	b8 00 00 00 00       	mov    $0x0,%eax
  401e12:	e8 6a fd ff ff       	call   401b81 <check_fail>
  401e17:	39 3d df 36 20 00    	cmp    %edi,0x2036df(%rip)        # 6054fc <vlevel>
  401e1d:	74 18                	je     401e37 <validate+0x8c>
  401e1f:	bf 8a 32 40 00       	mov    $0x40328a,%edi
  401e24:	e8 37 ef ff ff       	call   400d60 <puts@plt>
  401e29:	89 de                	mov    %ebx,%esi
  401e2b:	bf 00 00 00 00       	mov    $0x0,%edi
  401e30:	e8 cd fd ff ff       	call   401c02 <notify_server>
  401e35:	eb af                	jmp    401de6 <validate+0x3b>
  401e37:	0f be 15 ea 42 20 00 	movsbl 0x2042ea(%rip),%edx        # 606128 <target_prefix>
  401e3e:	89 fe                	mov    %edi,%esi
  401e40:	bf f0 33 40 00       	mov    $0x4033f0,%edi
  401e45:	b8 00 00 00 00       	mov    $0x0,%eax
  401e4a:	e8 41 ef ff ff       	call   400d90 <printf@plt>
  401e4f:	89 de                	mov    %ebx,%esi
  401e51:	bf 01 00 00 00       	mov    $0x1,%edi
  401e56:	e8 a7 fd ff ff       	call   401c02 <notify_server>
  401e5b:	eb 89                	jmp    401de6 <validate+0x3b>

0000000000401e5d <fail>:
  401e5d:	48 83 ec 08          	sub    $0x8,%rsp
  401e61:	83 3d a0 36 20 00 00 	cmpl   $0x0,0x2036a0(%rip)        # 605508 <is_checker>
  401e68:	75 11                	jne    401e7b <fail+0x1e>
  401e6a:	89 fe                	mov    %edi,%esi
  401e6c:	bf 00 00 00 00       	mov    $0x0,%edi
  401e71:	e8 8c fd ff ff       	call   401c02 <notify_server>
  401e76:	48 83 c4 08          	add    $0x8,%rsp
  401e7a:	c3                   	ret    
  401e7b:	b8 00 00 00 00       	mov    $0x0,%eax
  401e80:	e8 fc fc ff ff       	call   401b81 <check_fail>

0000000000401e85 <bushandler>:
  401e85:	48 83 ec 08          	sub    $0x8,%rsp
  401e89:	83 3d 78 36 20 00 00 	cmpl   $0x0,0x203678(%rip)        # 605508 <is_checker>
  401e90:	74 14                	je     401ea6 <bushandler+0x21>
  401e92:	bf bd 32 40 00       	mov    $0x4032bd,%edi
  401e97:	e8 c4 ee ff ff       	call   400d60 <puts@plt>
  401e9c:	b8 00 00 00 00       	mov    $0x0,%eax
  401ea1:	e8 db fc ff ff       	call   401b81 <check_fail>
  401ea6:	bf 28 34 40 00       	mov    $0x403428,%edi
  401eab:	e8 b0 ee ff ff       	call   400d60 <puts@plt>
  401eb0:	bf c7 32 40 00       	mov    $0x4032c7,%edi
  401eb5:	e8 a6 ee ff ff       	call   400d60 <puts@plt>
  401eba:	be 00 00 00 00       	mov    $0x0,%esi
  401ebf:	bf 00 00 00 00       	mov    $0x0,%edi
  401ec4:	e8 39 fd ff ff       	call   401c02 <notify_server>
  401ec9:	bf 01 00 00 00       	mov    $0x1,%edi
  401ece:	e8 fd ef ff ff       	call   400ed0 <exit@plt>

0000000000401ed3 <seghandler>:
  401ed3:	48 83 ec 08          	sub    $0x8,%rsp
  401ed7:	83 3d 2a 36 20 00 00 	cmpl   $0x0,0x20362a(%rip)        # 605508 <is_checker>
  401ede:	74 14                	je     401ef4 <seghandler+0x21>
  401ee0:	bf dd 32 40 00       	mov    $0x4032dd,%edi
  401ee5:	e8 76 ee ff ff       	call   400d60 <puts@plt>
  401eea:	b8 00 00 00 00       	mov    $0x0,%eax
  401eef:	e8 8d fc ff ff       	call   401b81 <check_fail>
  401ef4:	bf 48 34 40 00       	mov    $0x403448,%edi
  401ef9:	e8 62 ee ff ff       	call   400d60 <puts@plt>
  401efe:	bf c7 32 40 00       	mov    $0x4032c7,%edi
  401f03:	e8 58 ee ff ff       	call   400d60 <puts@plt>
  401f08:	be 00 00 00 00       	mov    $0x0,%esi
  401f0d:	bf 00 00 00 00       	mov    $0x0,%edi
  401f12:	e8 eb fc ff ff       	call   401c02 <notify_server>
  401f17:	bf 01 00 00 00       	mov    $0x1,%edi
  401f1c:	e8 af ef ff ff       	call   400ed0 <exit@plt>

0000000000401f21 <illegalhandler>:
  401f21:	48 83 ec 08          	sub    $0x8,%rsp
  401f25:	83 3d dc 35 20 00 00 	cmpl   $0x0,0x2035dc(%rip)        # 605508 <is_checker>
  401f2c:	74 14                	je     401f42 <illegalhandler+0x21>
  401f2e:	bf f0 32 40 00       	mov    $0x4032f0,%edi
  401f33:	e8 28 ee ff ff       	call   400d60 <puts@plt>
  401f38:	b8 00 00 00 00       	mov    $0x0,%eax
  401f3d:	e8 3f fc ff ff       	call   401b81 <check_fail>
  401f42:	bf 70 34 40 00       	mov    $0x403470,%edi
  401f47:	e8 14 ee ff ff       	call   400d60 <puts@plt>
  401f4c:	bf c7 32 40 00       	mov    $0x4032c7,%edi
  401f51:	e8 0a ee ff ff       	call   400d60 <puts@plt>
  401f56:	be 00 00 00 00       	mov    $0x0,%esi
  401f5b:	bf 00 00 00 00       	mov    $0x0,%edi
  401f60:	e8 9d fc ff ff       	call   401c02 <notify_server>
  401f65:	bf 01 00 00 00       	mov    $0x1,%edi
  401f6a:	e8 61 ef ff ff       	call   400ed0 <exit@plt>

0000000000401f6f <sigalrmhandler>:
  401f6f:	48 83 ec 08          	sub    $0x8,%rsp
  401f73:	83 3d 8e 35 20 00 00 	cmpl   $0x0,0x20358e(%rip)        # 605508 <is_checker>
  401f7a:	74 14                	je     401f90 <sigalrmhandler+0x21>
  401f7c:	bf 04 33 40 00       	mov    $0x403304,%edi
  401f81:	e8 da ed ff ff       	call   400d60 <puts@plt>
  401f86:	b8 00 00 00 00       	mov    $0x0,%eax
  401f8b:	e8 f1 fb ff ff       	call   401b81 <check_fail>
  401f90:	be 05 00 00 00       	mov    $0x5,%esi
  401f95:	bf a0 34 40 00       	mov    $0x4034a0,%edi
  401f9a:	b8 00 00 00 00       	mov    $0x0,%eax
  401f9f:	e8 ec ed ff ff       	call   400d90 <printf@plt>
  401fa4:	be 00 00 00 00       	mov    $0x0,%esi
  401fa9:	bf 00 00 00 00       	mov    $0x0,%edi
  401fae:	e8 4f fc ff ff       	call   401c02 <notify_server>
  401fb3:	bf 01 00 00 00       	mov    $0x1,%edi
  401fb8:	e8 13 ef ff ff       	call   400ed0 <exit@plt>

0000000000401fbd <launch>:
  401fbd:	55                   	push   %rbp
  401fbe:	48 89 e5             	mov    %rsp,%rbp
  401fc1:	48 89 fa             	mov    %rdi,%rdx
  401fc4:	48 8d 47 1e          	lea    0x1e(%rdi),%rax
  401fc8:	48 83 e0 f0          	and    $0xfffffffffffffff0,%rax
  401fcc:	48 29 c4             	sub    %rax,%rsp
  401fcf:	48 8d 7c 24 0f       	lea    0xf(%rsp),%rdi
  401fd4:	48 83 e7 f0          	and    $0xfffffffffffffff0,%rdi
  401fd8:	be f4 00 00 00       	mov    $0xf4,%esi
  401fdd:	e8 be ed ff ff       	call   400da0 <memset@plt>
  401fe2:	48 8b 05 b7 34 20 00 	mov    0x2034b7(%rip),%rax        # 6054a0 <stdin@@GLIBC_2.2.5>
  401fe9:	48 39 05 00 35 20 00 	cmp    %rax,0x203500(%rip)        # 6054f0 <infile>
  401ff0:	74 29                	je     40201b <launch+0x5e>
  401ff2:	c7 05 00 35 20 00 00 	movl   $0x0,0x203500(%rip)        # 6054fc <vlevel>
  401ff9:	00 00 00 
  401ffc:	b8 00 00 00 00       	mov    $0x0,%eax
  402001:	e8 cc f9 ff ff       	call   4019d2 <test>
  402006:	83 3d fb 34 20 00 00 	cmpl   $0x0,0x2034fb(%rip)        # 605508 <is_checker>
  40200d:	75 1d                	jne    40202c <launch+0x6f>
  40200f:	bf 24 33 40 00       	mov    $0x403324,%edi
  402014:	e8 47 ed ff ff       	call   400d60 <puts@plt>
  402019:	c9                   	leave  
  40201a:	c3                   	ret    
  40201b:	bf 0c 33 40 00       	mov    $0x40330c,%edi
  402020:	b8 00 00 00 00       	mov    $0x0,%eax
  402025:	e8 66 ed ff ff       	call   400d90 <printf@plt>
  40202a:	eb c6                	jmp    401ff2 <launch+0x35>
  40202c:	bf 19 33 40 00       	mov    $0x403319,%edi
  402031:	e8 2a ed ff ff       	call   400d60 <puts@plt>
  402036:	b8 00 00 00 00       	mov    $0x0,%eax
  40203b:	e8 41 fb ff ff       	call   401b81 <check_fail>

0000000000402040 <stable_launch>:
  402040:	53                   	push   %rbx
  402041:	48 89 3d a0 34 20 00 	mov    %rdi,0x2034a0(%rip)        # 6054e8 <global_offset>
  402048:	41 b9 00 00 00 00    	mov    $0x0,%r9d
  40204e:	41 b8 00 00 00 00    	mov    $0x0,%r8d
  402054:	b9 32 01 00 00       	mov    $0x132,%ecx
  402059:	ba 07 00 00 00       	mov    $0x7,%edx
  40205e:	be 00 00 10 00       	mov    $0x100000,%esi
  402063:	bf 00 60 58 55       	mov    $0x55586000,%edi
  402068:	e8 13 ed ff ff       	call   400d80 <mmap@plt>
  40206d:	48 89 c3             	mov    %rax,%rbx
  402070:	48 3d 00 60 58 55    	cmp    $0x55586000,%rax
  402076:	75 43                	jne    4020bb <stable_launch+0x7b>
  402078:	48 8d 90 f8 ff 0f 00 	lea    0xffff8(%rax),%rdx
  40207f:	48 89 15 aa 40 20 00 	mov    %rdx,0x2040aa(%rip)        # 606130 <stack_top>
  402086:	48 89 e0             	mov    %rsp,%rax
  402089:	48 89 d4             	mov    %rdx,%rsp
  40208c:	48 89 c2             	mov    %rax,%rdx
  40208f:	48 89 15 4a 34 20 00 	mov    %rdx,0x20344a(%rip)        # 6054e0 <global_save_stack>
  402096:	48 8b 3d 4b 34 20 00 	mov    0x20344b(%rip),%rdi        # 6054e8 <global_offset>
  40209d:	e8 1b ff ff ff       	call   401fbd <launch>
  4020a2:	48 8b 05 37 34 20 00 	mov    0x203437(%rip),%rax        # 6054e0 <global_save_stack>
  4020a9:	48 89 c4             	mov    %rax,%rsp
  4020ac:	be 00 00 10 00       	mov    $0x100000,%esi
  4020b1:	48 89 df             	mov    %rbx,%rdi
  4020b4:	e8 a7 ed ff ff       	call   400e60 <munmap@plt>
  4020b9:	5b                   	pop    %rbx
  4020ba:	c3                   	ret    
  4020bb:	be 00 00 10 00       	mov    $0x100000,%esi
  4020c0:	48 89 c7             	mov    %rax,%rdi
  4020c3:	e8 98 ed ff ff       	call   400e60 <munmap@plt>
  4020c8:	ba 00 60 58 55       	mov    $0x55586000,%edx
  4020cd:	be d8 34 40 00       	mov    $0x4034d8,%esi
  4020d2:	48 8b 3d e7 33 20 00 	mov    0x2033e7(%rip),%rdi        # 6054c0 <stderr@@GLIBC_2.2.5>
  4020d9:	b8 00 00 00 00       	mov    $0x0,%eax
  4020de:	e8 1d ed ff ff       	call   400e00 <fprintf@plt>
  4020e3:	bf 01 00 00 00       	mov    $0x1,%edi
  4020e8:	e8 e3 ed ff ff       	call   400ed0 <exit@plt>

00000000004020ed <rio_readinitb>:
  4020ed:	89 37                	mov    %esi,(%rdi)
  4020ef:	c7 47 04 00 00 00 00 	movl   $0x0,0x4(%rdi)
  4020f6:	48 8d 47 10          	lea    0x10(%rdi),%rax
  4020fa:	48 89 47 08          	mov    %rax,0x8(%rdi)
  4020fe:	c3                   	ret    

00000000004020ff <sigalrm_handler>:
  4020ff:	48 83 ec 08          	sub    $0x8,%rsp
  402103:	ba 00 00 00 00       	mov    $0x0,%edx
  402108:	be 10 35 40 00       	mov    $0x403510,%esi
  40210d:	48 8b 3d ac 33 20 00 	mov    0x2033ac(%rip),%rdi        # 6054c0 <stderr@@GLIBC_2.2.5>
  402114:	b8 00 00 00 00       	mov    $0x0,%eax
  402119:	e8 e2 ec ff ff       	call   400e00 <fprintf@plt>
  40211e:	bf 01 00 00 00       	mov    $0x1,%edi
  402123:	e8 a8 ed ff ff       	call   400ed0 <exit@plt>

0000000000402128 <urlencode>:
  402128:	41 54                	push   %r12
  40212a:	55                   	push   %rbp
  40212b:	53                   	push   %rbx
  40212c:	48 83 ec 10          	sub    $0x10,%rsp
  402130:	48 89 fb             	mov    %rdi,%rbx
  402133:	48 89 f5             	mov    %rsi,%rbp
  402136:	48 c7 c1 ff ff ff ff 	mov    $0xffffffffffffffff,%rcx
  40213d:	b8 00 00 00 00       	mov    $0x0,%eax
  402142:	f2 ae                	repnz scas %es:(%rdi),%al
  402144:	48 89 ce             	mov    %rcx,%rsi
  402147:	48 f7 d6             	not    %rsi
  40214a:	8d 46 ff             	lea    -0x1(%rsi),%eax
  40214d:	eb 0e                	jmp    40215d <urlencode+0x35>
  40214f:	88 45 00             	mov    %al,0x0(%rbp)
  402152:	48 8d 6d 01          	lea    0x1(%rbp),%rbp
  402156:	48 83 c3 01          	add    $0x1,%rbx
  40215a:	44 89 e0             	mov    %r12d,%eax
  40215d:	44 8d 60 ff          	lea    -0x1(%rax),%r12d
  402161:	85 c0                	test   %eax,%eax
  402163:	0f 84 91 00 00 00    	je     4021fa <urlencode+0xd2>
  402169:	0f b6 03             	movzbl (%rbx),%eax
  40216c:	3c 2a                	cmp    $0x2a,%al
  40216e:	0f 94 c1             	sete   %cl
  402171:	3c 2d                	cmp    $0x2d,%al
  402173:	0f 94 c2             	sete   %dl
  402176:	08 d1                	or     %dl,%cl
  402178:	75 d5                	jne    40214f <urlencode+0x27>
  40217a:	3c 2e                	cmp    $0x2e,%al
  40217c:	74 d1                	je     40214f <urlencode+0x27>
  40217e:	3c 5f                	cmp    $0x5f,%al
  402180:	74 cd                	je     40214f <urlencode+0x27>
  402182:	8d 50 d0             	lea    -0x30(%rax),%edx
  402185:	80 fa 09             	cmp    $0x9,%dl
  402188:	76 c5                	jbe    40214f <urlencode+0x27>
  40218a:	8d 50 bf             	lea    -0x41(%rax),%edx
  40218d:	80 fa 19             	cmp    $0x19,%dl
  402190:	76 bd                	jbe    40214f <urlencode+0x27>
  402192:	8d 50 9f             	lea    -0x61(%rax),%edx
  402195:	80 fa 19             	cmp    $0x19,%dl
  402198:	76 b5                	jbe    40214f <urlencode+0x27>
  40219a:	3c 20                	cmp    $0x20,%al
  40219c:	74 4a                	je     4021e8 <urlencode+0xc0>
  40219e:	8d 50 e0             	lea    -0x20(%rax),%edx
  4021a1:	80 fa 5f             	cmp    $0x5f,%dl
  4021a4:	0f 96 c1             	setbe  %cl
  4021a7:	3c 09                	cmp    $0x9,%al
  4021a9:	0f 94 c2             	sete   %dl
  4021ac:	08 d1                	or     %dl,%cl
  4021ae:	74 45                	je     4021f5 <urlencode+0xcd>
  4021b0:	0f b6 d0             	movzbl %al,%edx
  4021b3:	be a5 35 40 00       	mov    $0x4035a5,%esi
  4021b8:	48 8d 7c 24 08       	lea    0x8(%rsp),%rdi
  4021bd:	b8 00 00 00 00       	mov    $0x0,%eax
  4021c2:	e8 f9 ec ff ff       	call   400ec0 <sprintf@plt>
  4021c7:	0f b6 44 24 08       	movzbl 0x8(%rsp),%eax
  4021cc:	88 45 00             	mov    %al,0x0(%rbp)
  4021cf:	0f b6 44 24 09       	movzbl 0x9(%rsp),%eax
  4021d4:	88 45 01             	mov    %al,0x1(%rbp)
  4021d7:	0f b6 44 24 0a       	movzbl 0xa(%rsp),%eax
  4021dc:	88 45 02             	mov    %al,0x2(%rbp)
  4021df:	48 8d 6d 03          	lea    0x3(%rbp),%rbp
  4021e3:	e9 6e ff ff ff       	jmp    402156 <urlencode+0x2e>
  4021e8:	c6 45 00 2b          	movb   $0x2b,0x0(%rbp)
  4021ec:	48 8d 6d 01          	lea    0x1(%rbp),%rbp
  4021f0:	e9 61 ff ff ff       	jmp    402156 <urlencode+0x2e>
  4021f5:	b8 ff ff ff ff       	mov    $0xffffffff,%eax
  4021fa:	48 83 c4 10          	add    $0x10,%rsp
  4021fe:	5b                   	pop    %rbx
  4021ff:	5d                   	pop    %rbp
  402200:	41 5c                	pop    %r12
  402202:	c3                   	ret    

0000000000402203 <rio_writen>:
  402203:	41 55                	push   %r13
  402205:	41 54                	push   %r12
  402207:	55                   	push   %rbp
  402208:	53                   	push   %rbx
  402209:	48 83 ec 08          	sub    $0x8,%rsp
  40220d:	41 89 fc             	mov    %edi,%r12d
  402210:	48 89 f5             	mov    %rsi,%rbp
  402213:	49 89 d5             	mov    %rdx,%r13
  402216:	48 89 d3             	mov    %rdx,%rbx
  402219:	eb 06                	jmp    402221 <rio_writen+0x1e>
  40221b:	48 29 c3             	sub    %rax,%rbx
  40221e:	48 01 c5             	add    %rax,%rbp
  402221:	48 85 db             	test   %rbx,%rbx
  402224:	74 24                	je     40224a <rio_writen+0x47>
  402226:	48 89 da             	mov    %rbx,%rdx
  402229:	48 89 ee             	mov    %rbp,%rsi
  40222c:	44 89 e7             	mov    %r12d,%edi
  40222f:	e8 3c eb ff ff       	call   400d70 <write@plt>
  402234:	48 85 c0             	test   %rax,%rax
  402237:	7f e2                	jg     40221b <rio_writen+0x18>
  402239:	e8 e2 ea ff ff       	call   400d20 <__errno_location@plt>
  40223e:	83 38 04             	cmpl   $0x4,(%rax)
  402241:	75 15                	jne    402258 <rio_writen+0x55>
  402243:	b8 00 00 00 00       	mov    $0x0,%eax
  402248:	eb d1                	jmp    40221b <rio_writen+0x18>
  40224a:	4c 89 e8             	mov    %r13,%rax
  40224d:	48 83 c4 08          	add    $0x8,%rsp
  402251:	5b                   	pop    %rbx
  402252:	5d                   	pop    %rbp
  402253:	41 5c                	pop    %r12
  402255:	41 5d                	pop    %r13
  402257:	c3                   	ret    
  402258:	48 c7 c0 ff ff ff ff 	mov    $0xffffffffffffffff,%rax
  40225f:	eb ec                	jmp    40224d <rio_writen+0x4a>

0000000000402261 <rio_read>:
  402261:	41 55                	push   %r13
  402263:	41 54                	push   %r12
  402265:	55                   	push   %rbp
  402266:	53                   	push   %rbx
  402267:	48 83 ec 08          	sub    $0x8,%rsp
  40226b:	48 89 fb             	mov    %rdi,%rbx
  40226e:	49 89 f5             	mov    %rsi,%r13
  402271:	49 89 d4             	mov    %rdx,%r12
  402274:	eb 0a                	jmp    402280 <rio_read+0x1f>
  402276:	e8 a5 ea ff ff       	call   400d20 <__errno_location@plt>
  40227b:	83 38 04             	cmpl   $0x4,(%rax)
  40227e:	75 5c                	jne    4022dc <rio_read+0x7b>
  402280:	8b 6b 04             	mov    0x4(%rbx),%ebp
  402283:	85 ed                	test   %ebp,%ebp
  402285:	7f 24                	jg     4022ab <rio_read+0x4a>
  402287:	48 8d 6b 10          	lea    0x10(%rbx),%rbp
  40228b:	ba 00 20 00 00       	mov    $0x2000,%edx
  402290:	48 89 ee             	mov    %rbp,%rsi
  402293:	8b 3b                	mov    (%rbx),%edi
  402295:	e8 36 eb ff ff       	call   400dd0 <read@plt>
  40229a:	89 43 04             	mov    %eax,0x4(%rbx)
  40229d:	85 c0                	test   %eax,%eax
  40229f:	78 d5                	js     402276 <rio_read+0x15>
  4022a1:	85 c0                	test   %eax,%eax
  4022a3:	74 40                	je     4022e5 <rio_read+0x84>
  4022a5:	48 89 6b 08          	mov    %rbp,0x8(%rbx)
  4022a9:	eb d5                	jmp    402280 <rio_read+0x1f>
  4022ab:	89 e8                	mov    %ebp,%eax
  4022ad:	4c 39 e0             	cmp    %r12,%rax
  4022b0:	72 03                	jb     4022b5 <rio_read+0x54>
  4022b2:	44 89 e5             	mov    %r12d,%ebp
  4022b5:	4c 63 e5             	movslq %ebp,%r12
  4022b8:	48 8b 73 08          	mov    0x8(%rbx),%rsi
  4022bc:	4c 89 e2             	mov    %r12,%rdx
  4022bf:	4c 89 ef             	mov    %r13,%rdi
  4022c2:	e8 59 eb ff ff       	call   400e20 <memcpy@plt>
  4022c7:	4c 01 63 08          	add    %r12,0x8(%rbx)
  4022cb:	29 6b 04             	sub    %ebp,0x4(%rbx)
  4022ce:	4c 89 e0             	mov    %r12,%rax
  4022d1:	48 83 c4 08          	add    $0x8,%rsp
  4022d5:	5b                   	pop    %rbx
  4022d6:	5d                   	pop    %rbp
  4022d7:	41 5c                	pop    %r12
  4022d9:	41 5d                	pop    %r13
  4022db:	c3                   	ret    
  4022dc:	48 c7 c0 ff ff ff ff 	mov    $0xffffffffffffffff,%rax
  4022e3:	eb ec                	jmp    4022d1 <rio_read+0x70>
  4022e5:	b8 00 00 00 00       	mov    $0x0,%eax
  4022ea:	eb e5                	jmp    4022d1 <rio_read+0x70>

00000000004022ec <rio_readlineb>:
  4022ec:	41 55                	push   %r13
  4022ee:	41 54                	push   %r12
  4022f0:	55                   	push   %rbp
  4022f1:	53                   	push   %rbx
  4022f2:	48 83 ec 18          	sub    $0x18,%rsp
  4022f6:	49 89 fd             	mov    %rdi,%r13
  4022f9:	48 89 f5             	mov    %rsi,%rbp
  4022fc:	49 89 d4             	mov    %rdx,%r12
  4022ff:	bb 01 00 00 00       	mov    $0x1,%ebx
  402304:	4c 39 e3             	cmp    %r12,%rbx
  402307:	73 47                	jae    402350 <rio_readlineb+0x64>
  402309:	ba 01 00 00 00       	mov    $0x1,%edx
  40230e:	48 8d 74 24 0f       	lea    0xf(%rsp),%rsi
  402313:	4c 89 ef             	mov    %r13,%rdi
  402316:	e8 46 ff ff ff       	call   402261 <rio_read>
  40231b:	83 f8 01             	cmp    $0x1,%eax
  40231e:	75 1c                	jne    40233c <rio_readlineb+0x50>
  402320:	48 8d 45 01          	lea    0x1(%rbp),%rax
  402324:	0f b6 54 24 0f       	movzbl 0xf(%rsp),%edx
  402329:	88 55 00             	mov    %dl,0x0(%rbp)
  40232c:	80 7c 24 0f 0a       	cmpb   $0xa,0xf(%rsp)
  402331:	74 1a                	je     40234d <rio_readlineb+0x61>
  402333:	48 83 c3 01          	add    $0x1,%rbx
  402337:	48 89 c5             	mov    %rax,%rbp
  40233a:	eb c8                	jmp    402304 <rio_readlineb+0x18>
  40233c:	85 c0                	test   %eax,%eax
  40233e:	75 22                	jne    402362 <rio_readlineb+0x76>
  402340:	48 83 fb 01          	cmp    $0x1,%rbx
  402344:	75 0a                	jne    402350 <rio_readlineb+0x64>
  402346:	b8 00 00 00 00       	mov    $0x0,%eax
  40234b:	eb 0a                	jmp    402357 <rio_readlineb+0x6b>
  40234d:	48 89 c5             	mov    %rax,%rbp
  402350:	c6 45 00 00          	movb   $0x0,0x0(%rbp)
  402354:	48 89 d8             	mov    %rbx,%rax
  402357:	48 83 c4 18          	add    $0x18,%rsp
  40235b:	5b                   	pop    %rbx
  40235c:	5d                   	pop    %rbp
  40235d:	41 5c                	pop    %r12
  40235f:	41 5d                	pop    %r13
  402361:	c3                   	ret    
  402362:	48 c7 c0 ff ff ff ff 	mov    $0xffffffffffffffff,%rax
  402369:	eb ec                	jmp    402357 <rio_readlineb+0x6b>

000000000040236b <submitr>:
  40236b:	41 57                	push   %r15
  40236d:	41 56                	push   %r14
  40236f:	41 55                	push   %r13
  402371:	41 54                	push   %r12
  402373:	55                   	push   %rbp
  402374:	53                   	push   %rbx
  402375:	48 81 ec 48 a0 00 00 	sub    $0xa048,%rsp
  40237c:	49 89 fc             	mov    %rdi,%r12
  40237f:	89 74 24 04          	mov    %esi,0x4(%rsp)
  402383:	49 89 d7             	mov    %rdx,%r15
  402386:	49 89 ce             	mov    %rcx,%r14
  402389:	4c 89 44 24 08       	mov    %r8,0x8(%rsp)
  40238e:	4d 89 cd             	mov    %r9,%r13
  402391:	48 8b ac 24 80 a0 00 	mov    0xa080(%rsp),%rbp
  402398:	00 
  402399:	c7 84 24 1c 20 00 00 	movl   $0x0,0x201c(%rsp)
  4023a0:	00 00 00 00 
  4023a4:	ba 00 00 00 00       	mov    $0x0,%edx
  4023a9:	be 01 00 00 00       	mov    $0x1,%esi
  4023ae:	bf 02 00 00 00       	mov    $0x2,%edi
  4023b3:	e8 48 eb ff ff       	call   400f00 <socket@plt>
  4023b8:	85 c0                	test   %eax,%eax
  4023ba:	0f 88 86 02 00 00    	js     402646 <submitr+0x2db>
  4023c0:	89 c3                	mov    %eax,%ebx
  4023c2:	4c 89 e7             	mov    %r12,%rdi
  4023c5:	e8 26 ea ff ff       	call   400df0 <gethostbyname@plt>
  4023ca:	48 85 c0             	test   %rax,%rax
  4023cd:	0f 84 bf 02 00 00    	je     402692 <submitr+0x327>
  4023d3:	48 c7 84 24 30 a0 00 	movq   $0x0,0xa030(%rsp)
  4023da:	00 00 00 00 00 
  4023df:	48 c7 84 24 38 a0 00 	movq   $0x0,0xa038(%rsp)
  4023e6:	00 00 00 00 00 
  4023eb:	66 c7 84 24 30 a0 00 	movw   $0x2,0xa030(%rsp)
  4023f2:	00 02 00 
  4023f5:	48 8b 48 18          	mov    0x18(%rax),%rcx
  4023f9:	48 63 50 14          	movslq 0x14(%rax),%rdx
  4023fd:	48 8d b4 24 34 a0 00 	lea    0xa034(%rsp),%rsi
  402404:	00 
  402405:	48 8b 39             	mov    (%rcx),%rdi
  402408:	e8 63 ea ff ff       	call   400e70 <bcopy@plt>
  40240d:	0f b7 44 24 04       	movzwl 0x4(%rsp),%eax
  402412:	66 c1 c0 08          	rol    $0x8,%ax
  402416:	66 89 84 24 32 a0 00 	mov    %ax,0xa032(%rsp)
  40241d:	00 
  40241e:	ba 10 00 00 00       	mov    $0x10,%edx
  402423:	48 8d b4 24 30 a0 00 	lea    0xa030(%rsp),%rsi
  40242a:	00 
  40242b:	89 df                	mov    %ebx,%edi
  40242d:	e8 ae ea ff ff       	call   400ee0 <connect@plt>
  402432:	85 c0                	test   %eax,%eax
  402434:	0f 88 c0 02 00 00    	js     4026fa <submitr+0x38f>
  40243a:	48 c7 c6 ff ff ff ff 	mov    $0xffffffffffffffff,%rsi
  402441:	b8 00 00 00 00       	mov    $0x0,%eax
  402446:	48 89 f1             	mov    %rsi,%rcx
  402449:	4c 89 ef             	mov    %r13,%rdi
  40244c:	f2 ae                	repnz scas %es:(%rdi),%al
  40244e:	48 89 ca             	mov    %rcx,%rdx
  402451:	48 f7 d2             	not    %rdx
  402454:	48 89 f1             	mov    %rsi,%rcx
  402457:	4c 89 ff             	mov    %r15,%rdi
  40245a:	f2 ae                	repnz scas %es:(%rdi),%al
  40245c:	48 f7 d1             	not    %rcx
  40245f:	49 89 c8             	mov    %rcx,%r8
  402462:	48 89 f1             	mov    %rsi,%rcx
  402465:	4c 89 f7             	mov    %r14,%rdi
  402468:	f2 ae                	repnz scas %es:(%rdi),%al
  40246a:	48 f7 d1             	not    %rcx
  40246d:	4d 8d 44 08 fe       	lea    -0x2(%r8,%rcx,1),%r8
  402472:	48 89 f1             	mov    %rsi,%rcx
  402475:	48 8b 7c 24 08       	mov    0x8(%rsp),%rdi
  40247a:	f2 ae                	repnz scas %es:(%rdi),%al
  40247c:	48 89 c8             	mov    %rcx,%rax
  40247f:	48 f7 d0             	not    %rax
  402482:	49 8d 4c 00 ff       	lea    -0x1(%r8,%rax,1),%rcx
  402487:	48 8d 44 52 fd       	lea    -0x3(%rdx,%rdx,2),%rax
  40248c:	48 8d 84 01 80 00 00 	lea    0x80(%rcx,%rax,1),%rax
  402493:	00 
  402494:	48 3d 00 20 00 00    	cmp    $0x2000,%rax
  40249a:	0f 87 b4 02 00 00    	ja     402754 <submitr+0x3e9>
  4024a0:	48 8d b4 24 20 40 00 	lea    0x4020(%rsp),%rsi
  4024a7:	00 
  4024a8:	b9 00 04 00 00       	mov    $0x400,%ecx
  4024ad:	b8 00 00 00 00       	mov    $0x0,%eax
  4024b2:	48 89 f7             	mov    %rsi,%rdi
  4024b5:	f3 48 ab             	rep stos %rax,%es:(%rdi)
  4024b8:	4c 89 ef             	mov    %r13,%rdi
  4024bb:	e8 68 fc ff ff       	call   402128 <urlencode>
  4024c0:	85 c0                	test   %eax,%eax
  4024c2:	0f 88 ff 02 00 00    	js     4027c7 <submitr+0x45c>
  4024c8:	4c 8d ac 24 20 60 00 	lea    0x6020(%rsp),%r13
  4024cf:	00 
  4024d0:	4d 89 e1             	mov    %r12,%r9
  4024d3:	4c 8d 84 24 20 40 00 	lea    0x4020(%rsp),%r8
  4024da:	00 
  4024db:	4c 89 f9             	mov    %r15,%rcx
  4024de:	4c 89 f2             	mov    %r14,%rdx
  4024e1:	be 38 35 40 00       	mov    $0x403538,%esi
  4024e6:	4c 89 ef             	mov    %r13,%rdi
  4024e9:	b8 00 00 00 00       	mov    $0x0,%eax
  4024ee:	e8 cd e9 ff ff       	call   400ec0 <sprintf@plt>
  4024f3:	48 c7 c1 ff ff ff ff 	mov    $0xffffffffffffffff,%rcx
  4024fa:	b8 00 00 00 00       	mov    $0x0,%eax
  4024ff:	4c 89 ef             	mov    %r13,%rdi
  402502:	f2 ae                	repnz scas %es:(%rdi),%al
  402504:	48 89 ca             	mov    %rcx,%rdx
  402507:	48 f7 d2             	not    %rdx
  40250a:	48 8d 52 ff          	lea    -0x1(%rdx),%rdx
  40250e:	4c 89 ee             	mov    %r13,%rsi
  402511:	89 df                	mov    %ebx,%edi
  402513:	e8 eb fc ff ff       	call   402203 <rio_writen>
  402518:	48 85 c0             	test   %rax,%rax
  40251b:	0f 88 31 03 00 00    	js     402852 <submitr+0x4e7>
  402521:	89 de                	mov    %ebx,%esi
  402523:	48 8d bc 24 20 80 00 	lea    0x8020(%rsp),%rdi
  40252a:	00 
  40252b:	e8 bd fb ff ff       	call   4020ed <rio_readinitb>
  402530:	ba 00 20 00 00       	mov    $0x2000,%edx
  402535:	48 8d b4 24 20 60 00 	lea    0x6020(%rsp),%rsi
  40253c:	00 
  40253d:	48 8d bc 24 20 80 00 	lea    0x8020(%rsp),%rdi
  402544:	00 
  402545:	e8 a2 fd ff ff       	call   4022ec <rio_readlineb>
  40254a:	48 85 c0             	test   %rax,%rax
  40254d:	0f 8e 6e 03 00 00    	jle    4028c1 <submitr+0x556>
  402553:	4c 8d 44 24 10       	lea    0x10(%rsp),%r8
  402558:	48 8d 8c 24 1c 20 00 	lea    0x201c(%rsp),%rcx
  40255f:	00 
  402560:	48 8d 94 24 20 20 00 	lea    0x2020(%rsp),%rdx
  402567:	00 
  402568:	be ac 35 40 00       	mov    $0x4035ac,%esi
  40256d:	48 8d bc 24 20 60 00 	lea    0x6020(%rsp),%rdi
  402574:	00 
  402575:	b8 00 00 00 00       	mov    $0x0,%eax
  40257a:	e8 d1 e8 ff ff       	call   400e50 <__isoc99_sscanf@plt>
  40257f:	48 8d b4 24 20 60 00 	lea    0x6020(%rsp),%rsi
  402586:	00 
  402587:	bf c3 35 40 00       	mov    $0x4035c3,%edi
  40258c:	b9 03 00 00 00       	mov    $0x3,%ecx
  402591:	f3 a6                	repz cmpsb %es:(%rdi),%ds:(%rsi)
  402593:	0f 97 c0             	seta   %al
  402596:	1c 00                	sbb    $0x0,%al
  402598:	84 c0                	test   %al,%al
  40259a:	0f 84 9f 03 00 00    	je     40293f <submitr+0x5d4>
  4025a0:	ba 00 20 00 00       	mov    $0x2000,%edx
  4025a5:	48 8d b4 24 20 60 00 	lea    0x6020(%rsp),%rsi
  4025ac:	00 
  4025ad:	48 8d bc 24 20 80 00 	lea    0x8020(%rsp),%rdi
  4025b4:	00 
  4025b5:	e8 32 fd ff ff       	call   4022ec <rio_readlineb>
  4025ba:	48 85 c0             	test   %rax,%rax
  4025bd:	7f c0                	jg     40257f <submitr+0x214>
  4025bf:	48 b8 45 72 72 6f 72 	movabs $0x43203a726f727245,%rax
  4025c6:	3a 20 43 
  4025c9:	48 ba 6c 69 65 6e 74 	movabs $0x6e7520746e65696c,%rdx
  4025d0:	20 75 6e 
  4025d3:	48 89 45 00          	mov    %rax,0x0(%rbp)
  4025d7:	48 89 55 08          	mov    %rdx,0x8(%rbp)
  4025db:	48 b8 61 62 6c 65 20 	movabs $0x206f7420656c6261,%rax
  4025e2:	74 6f 20 
  4025e5:	48 ba 72 65 61 64 20 	movabs $0x6165682064616572,%rdx
  4025ec:	68 65 61 
  4025ef:	48 89 45 10          	mov    %rax,0x10(%rbp)
  4025f3:	48 89 55 18          	mov    %rdx,0x18(%rbp)
  4025f7:	48 b8 64 65 72 73 20 	movabs $0x6f72662073726564,%rax
  4025fe:	66 72 6f 
  402601:	48 ba 6d 20 74 68 65 	movabs $0x657220656874206d,%rdx
  402608:	20 72 65 
  40260b:	48 89 45 20          	mov    %rax,0x20(%rbp)
  40260f:	48 89 55 28          	mov    %rdx,0x28(%rbp)
  402613:	48 b8 73 75 6c 74 20 	movabs $0x72657320746c7573,%rax
  40261a:	73 65 72 
  40261d:	48 89 45 30          	mov    %rax,0x30(%rbp)
  402621:	c7 45 38 76 65 72 00 	movl   $0x726576,0x38(%rbp)
  402628:	89 df                	mov    %ebx,%edi
  40262a:	e8 91 e7 ff ff       	call   400dc0 <close@plt>
  40262f:	b8 ff ff ff ff       	mov    $0xffffffff,%eax
  402634:	48 81 c4 48 a0 00 00 	add    $0xa048,%rsp
  40263b:	5b                   	pop    %rbx
  40263c:	5d                   	pop    %rbp
  40263d:	41 5c                	pop    %r12
  40263f:	41 5d                	pop    %r13
  402641:	41 5e                	pop    %r14
  402643:	41 5f                	pop    %r15
  402645:	c3                   	ret    
  402646:	48 b8 45 72 72 6f 72 	movabs $0x43203a726f727245,%rax
  40264d:	3a 20 43 
  402650:	48 ba 6c 69 65 6e 74 	movabs $0x6e7520746e65696c,%rdx
  402657:	20 75 6e 
  40265a:	48 89 45 00          	mov    %rax,0x0(%rbp)
  40265e:	48 89 55 08          	mov    %rdx,0x8(%rbp)
  402662:	48 b8 61 62 6c 65 20 	movabs $0x206f7420656c6261,%rax
  402669:	74 6f 20 
  40266c:	48 ba 63 72 65 61 74 	movabs $0x7320657461657263,%rdx
  402673:	65 20 73 
  402676:	48 89 45 10          	mov    %rax,0x10(%rbp)
  40267a:	48 89 55 18          	mov    %rdx,0x18(%rbp)
  40267e:	c7 45 20 6f 63 6b 65 	movl   $0x656b636f,0x20(%rbp)
  402685:	66 c7 45 24 74 00    	movw   $0x74,0x24(%rbp)
  40268b:	b8 ff ff ff ff       	mov    $0xffffffff,%eax
  402690:	eb a2                	jmp    402634 <submitr+0x2c9>
  402692:	48 b8 45 72 72 6f 72 	movabs $0x44203a726f727245,%rax
  402699:	3a 20 44 
  40269c:	48 ba 4e 53 20 69 73 	movabs $0x6e7520736920534e,%rdx
  4026a3:	20 75 6e 
  4026a6:	48 89 45 00          	mov    %rax,0x0(%rbp)
  4026aa:	48 89 55 08          	mov    %rdx,0x8(%rbp)
  4026ae:	48 b8 61 62 6c 65 20 	movabs $0x206f7420656c6261,%rax
  4026b5:	74 6f 20 
  4026b8:	48 ba 72 65 73 6f 6c 	movabs $0x2065766c6f736572,%rdx
  4026bf:	76 65 20 
  4026c2:	48 89 45 10          	mov    %rax,0x10(%rbp)
  4026c6:	48 89 55 18          	mov    %rdx,0x18(%rbp)
  4026ca:	48 b8 73 65 72 76 65 	movabs $0x6120726576726573,%rax
  4026d1:	72 20 61 
  4026d4:	48 89 45 20          	mov    %rax,0x20(%rbp)
  4026d8:	c7 45 28 64 64 72 65 	movl   $0x65726464,0x28(%rbp)
  4026df:	66 c7 45 2c 73 73    	movw   $0x7373,0x2c(%rbp)
  4026e5:	c6 45 2e 00          	movb   $0x0,0x2e(%rbp)
  4026e9:	89 df                	mov    %ebx,%edi
  4026eb:	e8 d0 e6 ff ff       	call   400dc0 <close@plt>
  4026f0:	b8 ff ff ff ff       	mov    $0xffffffff,%eax
  4026f5:	e9 3a ff ff ff       	jmp    402634 <submitr+0x2c9>
  4026fa:	48 b8 45 72 72 6f 72 	movabs $0x55203a726f727245,%rax
  402701:	3a 20 55 
  402704:	48 ba 6e 61 62 6c 65 	movabs $0x6f7420656c62616e,%rdx
  40270b:	20 74 6f 
  40270e:	48 89 45 00          	mov    %rax,0x0(%rbp)
  402712:	48 89 55 08          	mov    %rdx,0x8(%rbp)
  402716:	48 b8 20 63 6f 6e 6e 	movabs $0x7463656e6e6f6320,%rax
  40271d:	65 63 74 
  402720:	48 ba 20 74 6f 20 74 	movabs $0x20656874206f7420,%rdx
  402727:	68 65 20 
  40272a:	48 89 45 10          	mov    %rax,0x10(%rbp)
  40272e:	48 89 55 18          	mov    %rdx,0x18(%rbp)
  402732:	c7 45 20 73 65 72 76 	movl   $0x76726573,0x20(%rbp)
  402739:	66 c7 45 24 65 72    	movw   $0x7265,0x24(%rbp)
  40273f:	c6 45 26 00          	movb   $0x0,0x26(%rbp)
  402743:	89 df                	mov    %ebx,%edi
  402745:	e8 76 e6 ff ff       	call   400dc0 <close@plt>
  40274a:	b8 ff ff ff ff       	mov    $0xffffffff,%eax
  40274f:	e9 e0 fe ff ff       	jmp    402634 <submitr+0x2c9>
  402754:	48 b8 45 72 72 6f 72 	movabs $0x52203a726f727245,%rax
  40275b:	3a 20 52 
  40275e:	48 ba 65 73 75 6c 74 	movabs $0x747320746c757365,%rdx
  402765:	20 73 74 
  402768:	48 89 45 00          	mov    %rax,0x0(%rbp)
  40276c:	48 89 55 08          	mov    %rdx,0x8(%rbp)
  402770:	48 b8 72 69 6e 67 20 	movabs $0x6f6f7420676e6972,%rax
  402777:	74 6f 6f 
  40277a:	48 ba 20 6c 61 72 67 	movabs $0x202e656772616c20,%rdx
  402781:	65 2e 20 
  402784:	48 89 45 10          	mov    %rax,0x10(%rbp)
  402788:	48 89 55 18          	mov    %rdx,0x18(%rbp)
  40278c:	48 b8 49 6e 63 72 65 	movabs $0x6573616572636e49,%rax
  402793:	61 73 65 
  402796:	48 ba 20 53 55 42 4d 	movabs $0x5254494d42555320,%rdx
  40279d:	49 54 52 
  4027a0:	48 89 45 20          	mov    %rax,0x20(%rbp)
  4027a4:	48 89 55 28          	mov    %rdx,0x28(%rbp)
  4027a8:	48 b8 5f 4d 41 58 42 	movabs $0x46554258414d5f,%rax
  4027af:	55 46 00 
  4027b2:	48 89 45 30          	mov    %rax,0x30(%rbp)
  4027b6:	89 df                	mov    %ebx,%edi
  4027b8:	e8 03 e6 ff ff       	call   400dc0 <close@plt>
  4027bd:	b8 ff ff ff ff       	mov    $0xffffffff,%eax
  4027c2:	e9 6d fe ff ff       	jmp    402634 <submitr+0x2c9>
  4027c7:	48 b8 45 72 72 6f 72 	movabs $0x52203a726f727245,%rax
  4027ce:	3a 20 52 
  4027d1:	48 ba 65 73 75 6c 74 	movabs $0x747320746c757365,%rdx
  4027d8:	20 73 74 
  4027db:	48 89 45 00          	mov    %rax,0x0(%rbp)
  4027df:	48 89 55 08          	mov    %rdx,0x8(%rbp)
  4027e3:	48 b8 72 69 6e 67 20 	movabs $0x6e6f6320676e6972,%rax
  4027ea:	63 6f 6e 
  4027ed:	48 ba 74 61 69 6e 73 	movabs $0x6e6120736e696174,%rdx
  4027f4:	20 61 6e 
  4027f7:	48 89 45 10          	mov    %rax,0x10(%rbp)
  4027fb:	48 89 55 18          	mov    %rdx,0x18(%rbp)
  4027ff:	48 b8 20 69 6c 6c 65 	movabs $0x6c6167656c6c6920,%rax
  402806:	67 61 6c 
  402809:	48 ba 20 6f 72 20 75 	movabs $0x72706e7520726f20,%rdx
  402810:	6e 70 72 
  402813:	48 89 45 20          	mov    %rax,0x20(%rbp)
  402817:	48 89 55 28          	mov    %rdx,0x28(%rbp)
  40281b:	48 b8 69 6e 74 61 62 	movabs $0x20656c6261746e69,%rax
  402822:	6c 65 20 
  402825:	48 ba 63 68 61 72 61 	movabs $0x6574636172616863,%rdx
  40282c:	63 74 65 
  40282f:	48 89 45 30          	mov    %rax,0x30(%rbp)
  402833:	48 89 55 38          	mov    %rdx,0x38(%rbp)
  402837:	66 c7 45 40 72 2e    	movw   $0x2e72,0x40(%rbp)
  40283d:	c6 45 42 00          	movb   $0x0,0x42(%rbp)
  402841:	89 df                	mov    %ebx,%edi
  402843:	e8 78 e5 ff ff       	call   400dc0 <close@plt>
  402848:	b8 ff ff ff ff       	mov    $0xffffffff,%eax
  40284d:	e9 e2 fd ff ff       	jmp    402634 <submitr+0x2c9>
  402852:	48 b8 45 72 72 6f 72 	movabs $0x43203a726f727245,%rax
  402859:	3a 20 43 
  40285c:	48 ba 6c 69 65 6e 74 	movabs $0x6e7520746e65696c,%rdx
  402863:	20 75 6e 
  402866:	48 89 45 00          	mov    %rax,0x0(%rbp)
  40286a:	48 89 55 08          	mov    %rdx,0x8(%rbp)
  40286e:	48 b8 61 62 6c 65 20 	movabs $0x206f7420656c6261,%rax
  402875:	74 6f 20 
  402878:	48 ba 77 72 69 74 65 	movabs $0x6f74206574697277,%rdx
  40287f:	20 74 6f 
  402882:	48 89 45 10          	mov    %rax,0x10(%rbp)
  402886:	48 89 55 18          	mov    %rdx,0x18(%rbp)
  40288a:	48 b8 20 74 68 65 20 	movabs $0x7365722065687420,%rax
  402891:	72 65 73 
  402894:	48 ba 75 6c 74 20 73 	movabs $0x7672657320746c75,%rdx
  40289b:	65 72 76 
  40289e:	48 89 45 20          	mov    %rax,0x20(%rbp)
  4028a2:	48 89 55 28          	mov    %rdx,0x28(%rbp)
  4028a6:	66 c7 45 30 65 72    	movw   $0x7265,0x30(%rbp)
  4028ac:	c6 45 32 00          	movb   $0x0,0x32(%rbp)
  4028b0:	89 df                	mov    %ebx,%edi
  4028b2:	e8 09 e5 ff ff       	call   400dc0 <close@plt>
  4028b7:	b8 ff ff ff ff       	mov    $0xffffffff,%eax
  4028bc:	e9 73 fd ff ff       	jmp    402634 <submitr+0x2c9>
  4028c1:	48 b8 45 72 72 6f 72 	movabs $0x43203a726f727245,%rax
  4028c8:	3a 20 43 
  4028cb:	48 ba 6c 69 65 6e 74 	movabs $0x6e7520746e65696c,%rdx
  4028d2:	20 75 6e 
  4028d5:	48 89 45 00          	mov    %rax,0x0(%rbp)
  4028d9:	48 89 55 08          	mov    %rdx,0x8(%rbp)
  4028dd:	48 b8 61 62 6c 65 20 	movabs $0x206f7420656c6261,%rax
  4028e4:	74 6f 20 
  4028e7:	48 ba 72 65 61 64 20 	movabs $0x7269662064616572,%rdx
  4028ee:	66 69 72 
  4028f1:	48 89 45 10          	mov    %rax,0x10(%rbp)
  4028f5:	48 89 55 18          	mov    %rdx,0x18(%rbp)
  4028f9:	48 b8 73 74 20 68 65 	movabs $0x6564616568207473,%rax
  402900:	61 64 65 
  402903:	48 ba 72 20 66 72 6f 	movabs $0x72206d6f72662072,%rdx
  40290a:	6d 20 72 
  40290d:	48 89 45 20          	mov    %rax,0x20(%rbp)
  402911:	48 89 55 28          	mov    %rdx,0x28(%rbp)
  402915:	48 b8 65 73 75 6c 74 	movabs $0x657320746c757365,%rax
  40291c:	20 73 65 
  40291f:	48 89 45 30          	mov    %rax,0x30(%rbp)
  402923:	c7 45 38 72 76 65 72 	movl   $0x72657672,0x38(%rbp)
  40292a:	c6 45 3c 00          	movb   $0x0,0x3c(%rbp)
  40292e:	89 df                	mov    %ebx,%edi
  402930:	e8 8b e4 ff ff       	call   400dc0 <close@plt>
  402935:	b8 ff ff ff ff       	mov    $0xffffffff,%eax
  40293a:	e9 f5 fc ff ff       	jmp    402634 <submitr+0x2c9>
  40293f:	ba 00 20 00 00       	mov    $0x2000,%edx
  402944:	48 8d b4 24 20 60 00 	lea    0x6020(%rsp),%rsi
  40294b:	00 
  40294c:	48 8d bc 24 20 80 00 	lea    0x8020(%rsp),%rdi
  402953:	00 
  402954:	e8 93 f9 ff ff       	call   4022ec <rio_readlineb>
  402959:	48 85 c0             	test   %rax,%rax
  40295c:	0f 8e 91 00 00 00    	jle    4029f3 <submitr+0x688>
  402962:	8b 94 24 1c 20 00 00 	mov    0x201c(%rsp),%edx
  402969:	81 fa c8 00 00 00    	cmp    $0xc8,%edx
  40296f:	0f 85 02 01 00 00    	jne    402a77 <submitr+0x70c>
  402975:	48 8d b4 24 20 60 00 	lea    0x6020(%rsp),%rsi
  40297c:	00 
  40297d:	48 89 ef             	mov    %rbp,%rdi
  402980:	e8 cb e3 ff ff       	call   400d50 <strcpy@plt>
  402985:	89 df                	mov    %ebx,%edi
  402987:	e8 34 e4 ff ff       	call   400dc0 <close@plt>
  40298c:	bf bd 35 40 00       	mov    $0x4035bd,%edi
  402991:	b9 04 00 00 00       	mov    $0x4,%ecx
  402996:	48 89 ee             	mov    %rbp,%rsi
  402999:	f3 a6                	repz cmpsb %es:(%rdi),%ds:(%rsi)
  40299b:	0f 97 c0             	seta   %al
  40299e:	1c 00                	sbb    $0x0,%al
  4029a0:	0f be c0             	movsbl %al,%eax
  4029a3:	85 c0                	test   %eax,%eax
  4029a5:	0f 84 89 fc ff ff    	je     402634 <submitr+0x2c9>
  4029ab:	bf c1 35 40 00       	mov    $0x4035c1,%edi
  4029b0:	b9 05 00 00 00       	mov    $0x5,%ecx
  4029b5:	48 89 ee             	mov    %rbp,%rsi
  4029b8:	f3 a6                	repz cmpsb %es:(%rdi),%ds:(%rsi)
  4029ba:	0f 97 c0             	seta   %al
  4029bd:	1c 00                	sbb    $0x0,%al
  4029bf:	0f be c0             	movsbl %al,%eax
  4029c2:	85 c0                	test   %eax,%eax
  4029c4:	0f 84 6a fc ff ff    	je     402634 <submitr+0x2c9>
  4029ca:	bf c6 35 40 00       	mov    $0x4035c6,%edi
  4029cf:	b9 03 00 00 00       	mov    $0x3,%ecx
  4029d4:	48 89 ee             	mov    %rbp,%rsi
  4029d7:	f3 a6                	repz cmpsb %es:(%rdi),%ds:(%rsi)
  4029d9:	0f 97 c0             	seta   %al
  4029dc:	1c 00                	sbb    $0x0,%al
  4029de:	0f be c0             	movsbl %al,%eax
  4029e1:	85 c0                	test   %eax,%eax
  4029e3:	0f 84 4b fc ff ff    	je     402634 <submitr+0x2c9>
  4029e9:	b8 ff ff ff ff       	mov    $0xffffffff,%eax
  4029ee:	e9 41 fc ff ff       	jmp    402634 <submitr+0x2c9>
  4029f3:	48 b8 45 72 72 6f 72 	movabs $0x43203a726f727245,%rax
  4029fa:	3a 20 43 
  4029fd:	48 ba 6c 69 65 6e 74 	movabs $0x6e7520746e65696c,%rdx
  402a04:	20 75 6e 
  402a07:	48 89 45 00          	mov    %rax,0x0(%rbp)
  402a0b:	48 89 55 08          	mov    %rdx,0x8(%rbp)
  402a0f:	48 b8 61 62 6c 65 20 	movabs $0x206f7420656c6261,%rax
  402a16:	74 6f 20 
  402a19:	48 ba 72 65 61 64 20 	movabs $0x6174732064616572,%rdx
  402a20:	73 74 61 
  402a23:	48 89 45 10          	mov    %rax,0x10(%rbp)
  402a27:	48 89 55 18          	mov    %rdx,0x18(%rbp)
  402a2b:	48 b8 74 75 73 20 6d 	movabs $0x7373656d20737574,%rax
  402a32:	65 73 73 
  402a35:	48 ba 61 67 65 20 66 	movabs $0x6d6f726620656761,%rdx
  402a3c:	72 6f 6d 
  402a3f:	48 89 45 20          	mov    %rax,0x20(%rbp)
  402a43:	48 89 55 28          	mov    %rdx,0x28(%rbp)
  402a47:	48 b8 20 72 65 73 75 	movabs $0x20746c7573657220,%rax
  402a4e:	6c 74 20 
  402a51:	48 89 45 30          	mov    %rax,0x30(%rbp)
  402a55:	c7 45 38 73 65 72 76 	movl   $0x76726573,0x38(%rbp)
  402a5c:	66 c7 45 3c 65 72    	movw   $0x7265,0x3c(%rbp)
  402a62:	c6 45 3e 00          	movb   $0x0,0x3e(%rbp)
  402a66:	89 df                	mov    %ebx,%edi
  402a68:	e8 53 e3 ff ff       	call   400dc0 <close@plt>
  402a6d:	b8 ff ff ff ff       	mov    $0xffffffff,%eax
  402a72:	e9 bd fb ff ff       	jmp    402634 <submitr+0x2c9>
  402a77:	48 8d 4c 24 10       	lea    0x10(%rsp),%rcx
  402a7c:	be 78 35 40 00       	mov    $0x403578,%esi
  402a81:	48 89 ef             	mov    %rbp,%rdi
  402a84:	b8 00 00 00 00       	mov    $0x0,%eax
  402a89:	e8 32 e4 ff ff       	call   400ec0 <sprintf@plt>
  402a8e:	89 df                	mov    %ebx,%edi
  402a90:	e8 2b e3 ff ff       	call   400dc0 <close@plt>
  402a95:	b8 ff ff ff ff       	mov    $0xffffffff,%eax
  402a9a:	e9 95 fb ff ff       	jmp    402634 <submitr+0x2c9>

0000000000402a9f <init_timeout>:
  402a9f:	85 ff                	test   %edi,%edi
  402aa1:	74 26                	je     402ac9 <init_timeout+0x2a>
  402aa3:	53                   	push   %rbx
  402aa4:	89 fb                	mov    %edi,%ebx
  402aa6:	85 ff                	test   %edi,%edi
  402aa8:	78 18                	js     402ac2 <init_timeout+0x23>
  402aaa:	be ff 20 40 00       	mov    $0x4020ff,%esi
  402aaf:	bf 0e 00 00 00       	mov    $0xe,%edi
  402ab4:	e8 27 e3 ff ff       	call   400de0 <signal@plt>
  402ab9:	89 df                	mov    %ebx,%edi
  402abb:	e8 f0 e2 ff ff       	call   400db0 <alarm@plt>
  402ac0:	5b                   	pop    %rbx
  402ac1:	c3                   	ret    
  402ac2:	bb 00 00 00 00       	mov    $0x0,%ebx
  402ac7:	eb e1                	jmp    402aaa <init_timeout+0xb>
  402ac9:	f3 c3                	repz ret 

0000000000402acb <init_driver>:
  402acb:	55                   	push   %rbp
  402acc:	53                   	push   %rbx
  402acd:	48 83 ec 18          	sub    $0x18,%rsp
  402ad1:	48 89 fd             	mov    %rdi,%rbp
  402ad4:	be 01 00 00 00       	mov    $0x1,%esi
  402ad9:	bf 0d 00 00 00       	mov    $0xd,%edi
  402ade:	e8 fd e2 ff ff       	call   400de0 <signal@plt>
  402ae3:	be 01 00 00 00       	mov    $0x1,%esi
  402ae8:	bf 1d 00 00 00       	mov    $0x1d,%edi
  402aed:	e8 ee e2 ff ff       	call   400de0 <signal@plt>
  402af2:	be 01 00 00 00       	mov    $0x1,%esi
  402af7:	bf 1d 00 00 00       	mov    $0x1d,%edi
  402afc:	e8 df e2 ff ff       	call   400de0 <signal@plt>
  402b01:	ba 00 00 00 00       	mov    $0x0,%edx
  402b06:	be 01 00 00 00       	mov    $0x1,%esi
  402b0b:	bf 02 00 00 00       	mov    $0x2,%edi
  402b10:	e8 eb e3 ff ff       	call   400f00 <socket@plt>
  402b15:	85 c0                	test   %eax,%eax
  402b17:	78 7c                	js     402b95 <init_driver+0xca>
  402b19:	89 c3                	mov    %eax,%ebx
  402b1b:	bf c9 35 40 00       	mov    $0x4035c9,%edi
  402b20:	e8 cb e2 ff ff       	call   400df0 <gethostbyname@plt>
  402b25:	48 85 c0             	test   %rax,%rax
  402b28:	0f 84 b3 00 00 00    	je     402be1 <init_driver+0x116>
  402b2e:	48 c7 04 24 00 00 00 	movq   $0x0,(%rsp)
  402b35:	00 
  402b36:	48 c7 44 24 08 00 00 	movq   $0x0,0x8(%rsp)
  402b3d:	00 00 
  402b3f:	66 c7 04 24 02 00    	movw   $0x2,(%rsp)
  402b45:	48 8b 48 18          	mov    0x18(%rax),%rcx
  402b49:	48 63 50 14          	movslq 0x14(%rax),%rdx
  402b4d:	48 8d 74 24 04       	lea    0x4(%rsp),%rsi
  402b52:	48 8b 39             	mov    (%rcx),%rdi
  402b55:	e8 16 e3 ff ff       	call   400e70 <bcopy@plt>
  402b5a:	66 c7 44 24 02 3c 9a 	movw   $0x9a3c,0x2(%rsp)
  402b61:	ba 10 00 00 00       	mov    $0x10,%edx
  402b66:	48 89 e6             	mov    %rsp,%rsi
  402b69:	89 df                	mov    %ebx,%edi
  402b6b:	e8 70 e3 ff ff       	call   400ee0 <connect@plt>
  402b70:	85 c0                	test   %eax,%eax
  402b72:	0f 88 d1 00 00 00    	js     402c49 <init_driver+0x17e>
  402b78:	89 df                	mov    %ebx,%edi
  402b7a:	e8 41 e2 ff ff       	call   400dc0 <close@plt>
  402b7f:	66 c7 45 00 4f 4b    	movw   $0x4b4f,0x0(%rbp)
  402b85:	c6 45 02 00          	movb   $0x0,0x2(%rbp)
  402b89:	b8 00 00 00 00       	mov    $0x0,%eax
  402b8e:	48 83 c4 18          	add    $0x18,%rsp
  402b92:	5b                   	pop    %rbx
  402b93:	5d                   	pop    %rbp
  402b94:	c3                   	ret    
  402b95:	48 b8 45 72 72 6f 72 	movabs $0x43203a726f727245,%rax
  402b9c:	3a 20 43 
  402b9f:	48 ba 6c 69 65 6e 74 	movabs $0x6e7520746e65696c,%rdx
  402ba6:	20 75 6e 
  402ba9:	48 89 45 00          	mov    %rax,0x0(%rbp)
  402bad:	48 89 55 08          	mov    %rdx,0x8(%rbp)
  402bb1:	48 b8 61 62 6c 65 20 	movabs $0x206f7420656c6261,%rax
  402bb8:	74 6f 20 
  402bbb:	48 ba 63 72 65 61 74 	movabs $0x7320657461657263,%rdx
  402bc2:	65 20 73 
  402bc5:	48 89 45 10          	mov    %rax,0x10(%rbp)
  402bc9:	48 89 55 18          	mov    %rdx,0x18(%rbp)
  402bcd:	c7 45 20 6f 63 6b 65 	movl   $0x656b636f,0x20(%rbp)
  402bd4:	66 c7 45 24 74 00    	movw   $0x74,0x24(%rbp)
  402bda:	b8 ff ff ff ff       	mov    $0xffffffff,%eax
  402bdf:	eb ad                	jmp    402b8e <init_driver+0xc3>
  402be1:	48 b8 45 72 72 6f 72 	movabs $0x44203a726f727245,%rax
  402be8:	3a 20 44 
  402beb:	48 ba 4e 53 20 69 73 	movabs $0x6e7520736920534e,%rdx
  402bf2:	20 75 6e 
  402bf5:	48 89 45 00          	mov    %rax,0x0(%rbp)
  402bf9:	48 89 55 08          	mov    %rdx,0x8(%rbp)
  402bfd:	48 b8 61 62 6c 65 20 	movabs $0x206f7420656c6261,%rax
  402c04:	74 6f 20 
  402c07:	48 ba 72 65 73 6f 6c 	movabs $0x2065766c6f736572,%rdx
  402c0e:	76 65 20 
  402c11:	48 89 45 10          	mov    %rax,0x10(%rbp)
  402c15:	48 89 55 18          	mov    %rdx,0x18(%rbp)
  402c19:	48 b8 73 65 72 76 65 	movabs $0x6120726576726573,%rax
  402c20:	72 20 61 
  402c23:	48 89 45 20          	mov    %rax,0x20(%rbp)
  402c27:	c7 45 28 64 64 72 65 	movl   $0x65726464,0x28(%rbp)
  402c2e:	66 c7 45 2c 73 73    	movw   $0x7373,0x2c(%rbp)
  402c34:	c6 45 2e 00          	movb   $0x0,0x2e(%rbp)
  402c38:	89 df                	mov    %ebx,%edi
  402c3a:	e8 81 e1 ff ff       	call   400dc0 <close@plt>
  402c3f:	b8 ff ff ff ff       	mov    $0xffffffff,%eax
  402c44:	e9 45 ff ff ff       	jmp    402b8e <init_driver+0xc3>
  402c49:	48 b8 45 72 72 6f 72 	movabs $0x55203a726f727245,%rax
  402c50:	3a 20 55 
  402c53:	48 ba 6e 61 62 6c 65 	movabs $0x6f7420656c62616e,%rdx
  402c5a:	20 74 6f 
  402c5d:	48 89 45 00          	mov    %rax,0x0(%rbp)
  402c61:	48 89 55 08          	mov    %rdx,0x8(%rbp)
  402c65:	48 b8 20 63 6f 6e 6e 	movabs $0x7463656e6e6f6320,%rax
  402c6c:	65 63 74 
  402c6f:	48 ba 20 74 6f 20 73 	movabs $0x76726573206f7420,%rdx
  402c76:	65 72 76 
  402c79:	48 89 45 10          	mov    %rax,0x10(%rbp)
  402c7d:	48 89 55 18          	mov    %rdx,0x18(%rbp)
  402c81:	66 c7 45 20 65 72    	movw   $0x7265,0x20(%rbp)
  402c87:	c6 45 22 00          	movb   $0x0,0x22(%rbp)
  402c8b:	89 df                	mov    %ebx,%edi
  402c8d:	e8 2e e1 ff ff       	call   400dc0 <close@plt>
  402c92:	b8 ff ff ff ff       	mov    $0xffffffff,%eax
  402c97:	e9 f2 fe ff ff       	jmp    402b8e <init_driver+0xc3>

0000000000402c9c <driver_post>:
  402c9c:	53                   	push   %rbx
  402c9d:	4c 89 cb             	mov    %r9,%rbx
  402ca0:	45 85 c0             	test   %r8d,%r8d
  402ca3:	75 18                	jne    402cbd <driver_post+0x21>
  402ca5:	48 85 ff             	test   %rdi,%rdi
  402ca8:	74 05                	je     402caf <driver_post+0x13>
  402caa:	80 3f 00             	cmpb   $0x0,(%rdi)
  402cad:	75 30                	jne    402cdf <driver_post+0x43>
  402caf:	66 c7 03 4f 4b       	movw   $0x4b4f,(%rbx)
  402cb4:	c6 43 02 00          	movb   $0x0,0x2(%rbx)
  402cb8:	44 89 c0             	mov    %r8d,%eax
  402cbb:	5b                   	pop    %rbx
  402cbc:	c3                   	ret    
  402cbd:	48 89 ce             	mov    %rcx,%rsi
  402cc0:	bf d6 35 40 00       	mov    $0x4035d6,%edi
  402cc5:	b8 00 00 00 00       	mov    $0x0,%eax
  402cca:	e8 c1 e0 ff ff       	call   400d90 <printf@plt>
  402ccf:	66 c7 03 4f 4b       	movw   $0x4b4f,(%rbx)
  402cd4:	c6 43 02 00          	movb   $0x0,0x2(%rbx)
  402cd8:	b8 00 00 00 00       	mov    $0x0,%eax
  402cdd:	eb dc                	jmp    402cbb <driver_post+0x1f>
  402cdf:	48 83 ec 08          	sub    $0x8,%rsp
  402ce3:	41 51                	push   %r9
  402ce5:	49 89 c9             	mov    %rcx,%r9
  402ce8:	49 89 d0             	mov    %rdx,%r8
  402ceb:	48 89 f9             	mov    %rdi,%rcx
  402cee:	48 89 f2             	mov    %rsi,%rdx
  402cf1:	be 9a 3c 00 00       	mov    $0x3c9a,%esi
  402cf6:	bf c9 35 40 00       	mov    $0x4035c9,%edi
  402cfb:	e8 6b f6 ff ff       	call   40236b <submitr>
  402d00:	48 83 c4 10          	add    $0x10,%rsp
  402d04:	eb b5                	jmp    402cbb <driver_post+0x1f>

0000000000402d06 <check>:
  402d06:	89 f8                	mov    %edi,%eax
  402d08:	c1 e8 1c             	shr    $0x1c,%eax
  402d0b:	85 c0                	test   %eax,%eax
  402d0d:	74 1d                	je     402d2c <check+0x26>
  402d0f:	b9 00 00 00 00       	mov    $0x0,%ecx
  402d14:	83 f9 1f             	cmp    $0x1f,%ecx
  402d17:	7f 0d                	jg     402d26 <check+0x20>
  402d19:	89 f8                	mov    %edi,%eax
  402d1b:	d3 e8                	shr    %cl,%eax
  402d1d:	3c 0a                	cmp    $0xa,%al
  402d1f:	74 11                	je     402d32 <check+0x2c>
  402d21:	83 c1 08             	add    $0x8,%ecx
  402d24:	eb ee                	jmp    402d14 <check+0xe>
  402d26:	b8 01 00 00 00       	mov    $0x1,%eax
  402d2b:	c3                   	ret    
  402d2c:	b8 00 00 00 00       	mov    $0x0,%eax
  402d31:	c3                   	ret    
  402d32:	b8 00 00 00 00       	mov    $0x0,%eax
  402d37:	c3                   	ret    

0000000000402d38 <gencookie>:
  402d38:	53                   	push   %rbx
  402d39:	83 c7 01             	add    $0x1,%edi
  402d3c:	e8 ef df ff ff       	call   400d30 <srandom@plt>
  402d41:	e8 fa e0 ff ff       	call   400e40 <random@plt>
  402d46:	89 c3                	mov    %eax,%ebx
  402d48:	89 c7                	mov    %eax,%edi
  402d4a:	e8 b7 ff ff ff       	call   402d06 <check>
  402d4f:	85 c0                	test   %eax,%eax
  402d51:	74 ee                	je     402d41 <gencookie+0x9>
  402d53:	89 d8                	mov    %ebx,%eax
  402d55:	5b                   	pop    %rbx
  402d56:	c3                   	ret    
  402d57:	66 0f 1f 84 00 00 00 	nopw   0x0(%rax,%rax,1)
  402d5e:	00 00 
  402d60:	90                   	nop
  402d61:	90                   	nop
  402d62:	90                   	nop
  402d63:	90                   	nop
  402d64:	90                   	nop
  402d65:	90                   	nop
  402d66:	90                   	nop
  402d67:	90                   	nop
  402d68:	90                   	nop
  402d69:	90                   	nop
  402d6a:	90                   	nop
  402d6b:	90                   	nop
  402d6c:	90                   	nop
  402d6d:	90                   	nop

0000000000402d6e <__libc_csu_init>:
  402d6e:	90                   	nop
  402d6f:	90                   	nop
  402d70:	41 57                	push   %r15
  402d72:	41 56                	push   %r14
  402d74:	49 89 d7             	mov    %rdx,%r15
  402d77:	41 55                	push   %r13
  402d79:	41 54                	push   %r12
  402d7b:	4c 8d 25 7e 20 20 00 	lea    0x20207e(%rip),%r12        # 604e00 <__frame_dummy_init_array_entry>
  402d82:	55                   	push   %rbp
  402d83:	48 8d 2d 7e 20 20 00 	lea    0x20207e(%rip),%rbp        # 604e08 <__do_global_dtors_aux_fini_array_entry>
  402d8a:	53                   	push   %rbx
  402d8b:	41 89 fd             	mov    %edi,%r13d
  402d8e:	49 89 f6             	mov    %rsi,%r14
  402d91:	4c 29 e5             	sub    %r12,%rbp
  402d94:	48 83 ec 08          	sub    $0x8,%rsp
  402d98:	48 c1 fd 03          	sar    $0x3,%rbp
  402d9c:	e8 3f df ff ff       	call   400ce0 <_init>
  402da1:	48 85 ed             	test   %rbp,%rbp
  402da4:	74 20                	je     402dc6 <__libc_csu_init+0x58>
  402da6:	31 db                	xor    %ebx,%ebx
  402da8:	0f 1f 84 00 00 00 00 	nopl   0x0(%rax,%rax,1)
  402daf:	00 
  402db0:	4c 89 fa             	mov    %r15,%rdx
  402db3:	4c 89 f6             	mov    %r14,%rsi
  402db6:	44 89 ef             	mov    %r13d,%edi
  402db9:	41 ff 14 dc          	call   *(%r12,%rbx,8)
  402dbd:	48 83 c3 01          	add    $0x1,%rbx
  402dc1:	48 39 dd             	cmp    %rbx,%rbp
  402dc4:	75 ea                	jne    402db0 <__libc_csu_init+0x42>
  402dc6:	48 83 c4 08          	add    $0x8,%rsp
  402dca:	5b                   	pop    %rbx
  402dcb:	5d                   	pop    %rbp
  402dcc:	41 5c                	pop    %r12
  402dce:	41 5d                	pop    %r13
  402dd0:	41 5e                	pop    %r14
  402dd2:	41 5f                	pop    %r15
  402dd4:	c3                   	ret    
  402dd5:	66 66 2e 0f 1f 84 00 	data16 cs nopw 0x0(%rax,%rax,1)
  402ddc:	00 00 00 00 
  402de0:	90                   	nop
  402de1:	90                   	nop
  402de2:	90                   	nop
  402de3:	90                   	nop
  402de4:	90                   	nop
  402de5:	90                   	nop
  402de6:	90                   	nop
  402de7:	90                   	nop
  402de8:	90                   	nop
  402de9:	90                   	nop
  402dea:	90                   	nop
  402deb:	90                   	nop
  402dec:	90                   	nop
  402ded:	90                   	nop

0000000000402dee <__libc_csu_fini>:
  402dee:	90                   	nop
  402def:	90                   	nop
  402df0:	f3 c3                	repz ret 

Disassembly of section .fini:

0000000000402df4 <_fini>:
  402df4:	48 83 ec 08          	sub    $0x8,%rsp
  402df8:	48 83 c4 08          	add    $0x8,%rsp
  402dfc:	c3                   	ret    
